ARM GAS  /tmp/ccLEMPDN.s 			page 1


   1              		.cpu cortex-m7
   2              		.eabi_attribute 28, 1
   3              		.eabi_attribute 20, 1
   4              		.eabi_attribute 21, 1
   5              		.eabi_attribute 23, 3
   6              		.eabi_attribute 24, 1
   7              		.eabi_attribute 25, 1
   8              		.eabi_attribute 26, 1
   9              		.eabi_attribute 30, 1
  10              		.eabi_attribute 34, 1
  11              		.eabi_attribute 18, 4
  12              		.file	"stm32f7xx_hal_rcc_ex.c"
  13              		.text
  14              	.Ltext0:
  15              		.cfi_sections	.debug_frame
  16              		.section	.text.HAL_RCCEx_PeriphCLKConfig,"ax",%progbits
  17              		.align	1
  18              		.global	HAL_RCCEx_PeriphCLKConfig
  19              		.arch armv7e-m
  20              		.syntax unified
  21              		.thumb
  22              		.thumb_func
  23              		.fpu fpv5-d16
  25              	HAL_RCCEx_PeriphCLKConfig:
  26              	.LVL0:
  27              	.LFB141:
  28              		.file 1 "Drivers/STM32F7xx_HAL_Driver/Src/stm32f7xx_hal_rcc_ex.c"
   1:Drivers/STM32F7xx_HAL_Driver/Src/stm32f7xx_hal_rcc_ex.c **** /**
   2:Drivers/STM32F7xx_HAL_Driver/Src/stm32f7xx_hal_rcc_ex.c ****   ******************************************************************************
   3:Drivers/STM32F7xx_HAL_Driver/Src/stm32f7xx_hal_rcc_ex.c ****   * @file    stm32f7xx_hal_rcc_ex.c
   4:Drivers/STM32F7xx_HAL_Driver/Src/stm32f7xx_hal_rcc_ex.c ****   * @author  MCD Application Team
   5:Drivers/STM32F7xx_HAL_Driver/Src/stm32f7xx_hal_rcc_ex.c ****   * @brief   Extension RCC HAL module driver.
   6:Drivers/STM32F7xx_HAL_Driver/Src/stm32f7xx_hal_rcc_ex.c ****   *          This file provides firmware functions to manage the following
   7:Drivers/STM32F7xx_HAL_Driver/Src/stm32f7xx_hal_rcc_ex.c ****   *          functionalities RCC extension peripheral:
   8:Drivers/STM32F7xx_HAL_Driver/Src/stm32f7xx_hal_rcc_ex.c ****   *           + Extended Peripheral Control functions
   9:Drivers/STM32F7xx_HAL_Driver/Src/stm32f7xx_hal_rcc_ex.c ****   *
  10:Drivers/STM32F7xx_HAL_Driver/Src/stm32f7xx_hal_rcc_ex.c ****   ******************************************************************************
  11:Drivers/STM32F7xx_HAL_Driver/Src/stm32f7xx_hal_rcc_ex.c ****   * @attention
  12:Drivers/STM32F7xx_HAL_Driver/Src/stm32f7xx_hal_rcc_ex.c ****   *
  13:Drivers/STM32F7xx_HAL_Driver/Src/stm32f7xx_hal_rcc_ex.c ****   * <h2><center>&copy; Copyright (c) 2017 STMicroelectronics.
  14:Drivers/STM32F7xx_HAL_Driver/Src/stm32f7xx_hal_rcc_ex.c ****   * All rights reserved.</center></h2>
  15:Drivers/STM32F7xx_HAL_Driver/Src/stm32f7xx_hal_rcc_ex.c ****   *
  16:Drivers/STM32F7xx_HAL_Driver/Src/stm32f7xx_hal_rcc_ex.c ****   * This software component is licensed by ST under BSD 3-Clause license,
  17:Drivers/STM32F7xx_HAL_Driver/Src/stm32f7xx_hal_rcc_ex.c ****   * the "License"; You may not use this file except in compliance with the
  18:Drivers/STM32F7xx_HAL_Driver/Src/stm32f7xx_hal_rcc_ex.c ****   * License. You may obtain a copy of the License at:
  19:Drivers/STM32F7xx_HAL_Driver/Src/stm32f7xx_hal_rcc_ex.c ****   *                        opensource.org/licenses/BSD-3-Clause
  20:Drivers/STM32F7xx_HAL_Driver/Src/stm32f7xx_hal_rcc_ex.c ****   *
  21:Drivers/STM32F7xx_HAL_Driver/Src/stm32f7xx_hal_rcc_ex.c ****   ******************************************************************************
  22:Drivers/STM32F7xx_HAL_Driver/Src/stm32f7xx_hal_rcc_ex.c ****   */
  23:Drivers/STM32F7xx_HAL_Driver/Src/stm32f7xx_hal_rcc_ex.c **** 
  24:Drivers/STM32F7xx_HAL_Driver/Src/stm32f7xx_hal_rcc_ex.c **** /* Includes ------------------------------------------------------------------*/
  25:Drivers/STM32F7xx_HAL_Driver/Src/stm32f7xx_hal_rcc_ex.c **** #include "stm32f7xx_hal.h"
  26:Drivers/STM32F7xx_HAL_Driver/Src/stm32f7xx_hal_rcc_ex.c **** 
  27:Drivers/STM32F7xx_HAL_Driver/Src/stm32f7xx_hal_rcc_ex.c **** /** @addtogroup STM32F7xx_HAL_Driver
  28:Drivers/STM32F7xx_HAL_Driver/Src/stm32f7xx_hal_rcc_ex.c ****   * @{
  29:Drivers/STM32F7xx_HAL_Driver/Src/stm32f7xx_hal_rcc_ex.c ****   */
  30:Drivers/STM32F7xx_HAL_Driver/Src/stm32f7xx_hal_rcc_ex.c **** 
ARM GAS  /tmp/ccLEMPDN.s 			page 2


  31:Drivers/STM32F7xx_HAL_Driver/Src/stm32f7xx_hal_rcc_ex.c **** /** @defgroup RCCEx RCCEx
  32:Drivers/STM32F7xx_HAL_Driver/Src/stm32f7xx_hal_rcc_ex.c ****   * @brief RCCEx HAL module driver
  33:Drivers/STM32F7xx_HAL_Driver/Src/stm32f7xx_hal_rcc_ex.c ****   * @{
  34:Drivers/STM32F7xx_HAL_Driver/Src/stm32f7xx_hal_rcc_ex.c ****   */
  35:Drivers/STM32F7xx_HAL_Driver/Src/stm32f7xx_hal_rcc_ex.c **** 
  36:Drivers/STM32F7xx_HAL_Driver/Src/stm32f7xx_hal_rcc_ex.c **** #ifdef HAL_RCC_MODULE_ENABLED
  37:Drivers/STM32F7xx_HAL_Driver/Src/stm32f7xx_hal_rcc_ex.c **** 
  38:Drivers/STM32F7xx_HAL_Driver/Src/stm32f7xx_hal_rcc_ex.c **** /* Private typedef -----------------------------------------------------------*/
  39:Drivers/STM32F7xx_HAL_Driver/Src/stm32f7xx_hal_rcc_ex.c **** /* Private define ------------------------------------------------------------*/
  40:Drivers/STM32F7xx_HAL_Driver/Src/stm32f7xx_hal_rcc_ex.c **** /** @defgroup RCCEx_Private_Defines RCCEx Private Defines
  41:Drivers/STM32F7xx_HAL_Driver/Src/stm32f7xx_hal_rcc_ex.c ****   * @{
  42:Drivers/STM32F7xx_HAL_Driver/Src/stm32f7xx_hal_rcc_ex.c ****   */
  43:Drivers/STM32F7xx_HAL_Driver/Src/stm32f7xx_hal_rcc_ex.c **** /**
  44:Drivers/STM32F7xx_HAL_Driver/Src/stm32f7xx_hal_rcc_ex.c ****   * @}
  45:Drivers/STM32F7xx_HAL_Driver/Src/stm32f7xx_hal_rcc_ex.c ****   */
  46:Drivers/STM32F7xx_HAL_Driver/Src/stm32f7xx_hal_rcc_ex.c **** /* Private macro -------------------------------------------------------------*/
  47:Drivers/STM32F7xx_HAL_Driver/Src/stm32f7xx_hal_rcc_ex.c **** /** @defgroup RCCEx_Private_Macros RCCEx Private Macros
  48:Drivers/STM32F7xx_HAL_Driver/Src/stm32f7xx_hal_rcc_ex.c ****  * @{
  49:Drivers/STM32F7xx_HAL_Driver/Src/stm32f7xx_hal_rcc_ex.c ****  */
  50:Drivers/STM32F7xx_HAL_Driver/Src/stm32f7xx_hal_rcc_ex.c **** /**
  51:Drivers/STM32F7xx_HAL_Driver/Src/stm32f7xx_hal_rcc_ex.c ****   * @}
  52:Drivers/STM32F7xx_HAL_Driver/Src/stm32f7xx_hal_rcc_ex.c ****   */
  53:Drivers/STM32F7xx_HAL_Driver/Src/stm32f7xx_hal_rcc_ex.c **** 
  54:Drivers/STM32F7xx_HAL_Driver/Src/stm32f7xx_hal_rcc_ex.c **** /** @defgroup RCCEx_Private_Macros RCCEx Private Macros
  55:Drivers/STM32F7xx_HAL_Driver/Src/stm32f7xx_hal_rcc_ex.c ****  * @{
  56:Drivers/STM32F7xx_HAL_Driver/Src/stm32f7xx_hal_rcc_ex.c ****  */
  57:Drivers/STM32F7xx_HAL_Driver/Src/stm32f7xx_hal_rcc_ex.c **** 
  58:Drivers/STM32F7xx_HAL_Driver/Src/stm32f7xx_hal_rcc_ex.c **** /**
  59:Drivers/STM32F7xx_HAL_Driver/Src/stm32f7xx_hal_rcc_ex.c ****   * @}
  60:Drivers/STM32F7xx_HAL_Driver/Src/stm32f7xx_hal_rcc_ex.c ****   */
  61:Drivers/STM32F7xx_HAL_Driver/Src/stm32f7xx_hal_rcc_ex.c **** 
  62:Drivers/STM32F7xx_HAL_Driver/Src/stm32f7xx_hal_rcc_ex.c **** 
  63:Drivers/STM32F7xx_HAL_Driver/Src/stm32f7xx_hal_rcc_ex.c **** /* Private variables ---------------------------------------------------------*/
  64:Drivers/STM32F7xx_HAL_Driver/Src/stm32f7xx_hal_rcc_ex.c **** /* Private function prototypes -----------------------------------------------*/
  65:Drivers/STM32F7xx_HAL_Driver/Src/stm32f7xx_hal_rcc_ex.c **** /* Private functions ---------------------------------------------------------*/
  66:Drivers/STM32F7xx_HAL_Driver/Src/stm32f7xx_hal_rcc_ex.c **** 
  67:Drivers/STM32F7xx_HAL_Driver/Src/stm32f7xx_hal_rcc_ex.c **** /** @defgroup RCCEx_Exported_Functions RCCEx Exported Functions
  68:Drivers/STM32F7xx_HAL_Driver/Src/stm32f7xx_hal_rcc_ex.c ****   * @{
  69:Drivers/STM32F7xx_HAL_Driver/Src/stm32f7xx_hal_rcc_ex.c ****   */
  70:Drivers/STM32F7xx_HAL_Driver/Src/stm32f7xx_hal_rcc_ex.c **** 
  71:Drivers/STM32F7xx_HAL_Driver/Src/stm32f7xx_hal_rcc_ex.c **** /** @defgroup RCCEx_Exported_Functions_Group1 Extended Peripheral Control functions
  72:Drivers/STM32F7xx_HAL_Driver/Src/stm32f7xx_hal_rcc_ex.c ****  *  @brief  Extended Peripheral Control functions
  73:Drivers/STM32F7xx_HAL_Driver/Src/stm32f7xx_hal_rcc_ex.c ****  *
  74:Drivers/STM32F7xx_HAL_Driver/Src/stm32f7xx_hal_rcc_ex.c **** @verbatim
  75:Drivers/STM32F7xx_HAL_Driver/Src/stm32f7xx_hal_rcc_ex.c ****  ===============================================================================
  76:Drivers/STM32F7xx_HAL_Driver/Src/stm32f7xx_hal_rcc_ex.c ****                 ##### Extended Peripheral Control functions  #####
  77:Drivers/STM32F7xx_HAL_Driver/Src/stm32f7xx_hal_rcc_ex.c ****  ===============================================================================
  78:Drivers/STM32F7xx_HAL_Driver/Src/stm32f7xx_hal_rcc_ex.c ****     [..]
  79:Drivers/STM32F7xx_HAL_Driver/Src/stm32f7xx_hal_rcc_ex.c ****     This subsection provides a set of functions allowing to control the RCC Clocks
  80:Drivers/STM32F7xx_HAL_Driver/Src/stm32f7xx_hal_rcc_ex.c ****     frequencies.
  81:Drivers/STM32F7xx_HAL_Driver/Src/stm32f7xx_hal_rcc_ex.c ****     [..]
  82:Drivers/STM32F7xx_HAL_Driver/Src/stm32f7xx_hal_rcc_ex.c ****     (@) Important note: Care must be taken when HAL_RCCEx_PeriphCLKConfig() is used to
  83:Drivers/STM32F7xx_HAL_Driver/Src/stm32f7xx_hal_rcc_ex.c ****         select the RTC clock source; in this case the Backup domain will be reset in
  84:Drivers/STM32F7xx_HAL_Driver/Src/stm32f7xx_hal_rcc_ex.c ****         order to modify the RTC Clock source, as consequence RTC registers (including
  85:Drivers/STM32F7xx_HAL_Driver/Src/stm32f7xx_hal_rcc_ex.c ****         the backup registers) and RCC_BDCR register will be set to their reset values.
  86:Drivers/STM32F7xx_HAL_Driver/Src/stm32f7xx_hal_rcc_ex.c **** 
  87:Drivers/STM32F7xx_HAL_Driver/Src/stm32f7xx_hal_rcc_ex.c **** @endverbatim
ARM GAS  /tmp/ccLEMPDN.s 			page 3


  88:Drivers/STM32F7xx_HAL_Driver/Src/stm32f7xx_hal_rcc_ex.c ****   * @{
  89:Drivers/STM32F7xx_HAL_Driver/Src/stm32f7xx_hal_rcc_ex.c ****   */
  90:Drivers/STM32F7xx_HAL_Driver/Src/stm32f7xx_hal_rcc_ex.c **** #if defined (STM32F745xx) || defined (STM32F746xx) || defined (STM32F756xx) || defined (STM32F765xx
  91:Drivers/STM32F7xx_HAL_Driver/Src/stm32f7xx_hal_rcc_ex.c ****     defined (STM32F767xx) || defined (STM32F769xx) || defined (STM32F777xx) || defined (STM32F779xx
  92:Drivers/STM32F7xx_HAL_Driver/Src/stm32f7xx_hal_rcc_ex.c ****     defined (STM32F750xx)
  93:Drivers/STM32F7xx_HAL_Driver/Src/stm32f7xx_hal_rcc_ex.c **** /**
  94:Drivers/STM32F7xx_HAL_Driver/Src/stm32f7xx_hal_rcc_ex.c ****   * @brief  Initializes the RCC extended peripherals clocks according to the specified
  95:Drivers/STM32F7xx_HAL_Driver/Src/stm32f7xx_hal_rcc_ex.c ****   *         parameters in the RCC_PeriphCLKInitTypeDef.
  96:Drivers/STM32F7xx_HAL_Driver/Src/stm32f7xx_hal_rcc_ex.c ****   * @param  PeriphClkInit pointer to an RCC_PeriphCLKInitTypeDef structure that
  97:Drivers/STM32F7xx_HAL_Driver/Src/stm32f7xx_hal_rcc_ex.c ****   *         contains the configuration information for the Extended Peripherals
  98:Drivers/STM32F7xx_HAL_Driver/Src/stm32f7xx_hal_rcc_ex.c ****   *         clocks(I2S, SAI, LTDC, RTC, TIM, UARTs, USARTs, LTPIM, SDMMC...).
  99:Drivers/STM32F7xx_HAL_Driver/Src/stm32f7xx_hal_rcc_ex.c ****   *
 100:Drivers/STM32F7xx_HAL_Driver/Src/stm32f7xx_hal_rcc_ex.c ****   * @note   Care must be taken when HAL_RCCEx_PeriphCLKConfig() is used to select
 101:Drivers/STM32F7xx_HAL_Driver/Src/stm32f7xx_hal_rcc_ex.c ****   *         the RTC clock source; in this case the Backup domain will be reset in
 102:Drivers/STM32F7xx_HAL_Driver/Src/stm32f7xx_hal_rcc_ex.c ****   *         order to modify the RTC Clock source, as consequence RTC registers (including
 103:Drivers/STM32F7xx_HAL_Driver/Src/stm32f7xx_hal_rcc_ex.c ****   *         the backup registers) are set to their reset values.
 104:Drivers/STM32F7xx_HAL_Driver/Src/stm32f7xx_hal_rcc_ex.c ****   *
 105:Drivers/STM32F7xx_HAL_Driver/Src/stm32f7xx_hal_rcc_ex.c ****   * @retval HAL status
 106:Drivers/STM32F7xx_HAL_Driver/Src/stm32f7xx_hal_rcc_ex.c ****   */
 107:Drivers/STM32F7xx_HAL_Driver/Src/stm32f7xx_hal_rcc_ex.c **** HAL_StatusTypeDef HAL_RCCEx_PeriphCLKConfig(RCC_PeriphCLKInitTypeDef  *PeriphClkInit)
 108:Drivers/STM32F7xx_HAL_Driver/Src/stm32f7xx_hal_rcc_ex.c **** {
  29              		.loc 1 108 1 view -0
  30              		.cfi_startproc
  31              		@ args = 0, pretend = 0, frame = 8
  32              		@ frame_needed = 0, uses_anonymous_args = 0
  33              		.loc 1 108 1 is_stmt 0 view .LVU1
  34 0000 F0B5     		push	{r4, r5, r6, r7, lr}
  35              	.LCFI0:
  36              		.cfi_def_cfa_offset 20
  37              		.cfi_offset 4, -20
  38              		.cfi_offset 5, -16
  39              		.cfi_offset 6, -12
  40              		.cfi_offset 7, -8
  41              		.cfi_offset 14, -4
  42 0002 83B0     		sub	sp, sp, #12
  43              	.LCFI1:
  44              		.cfi_def_cfa_offset 32
  45 0004 0446     		mov	r4, r0
 109:Drivers/STM32F7xx_HAL_Driver/Src/stm32f7xx_hal_rcc_ex.c ****   uint32_t tickstart = 0;
  46              		.loc 1 109 3 is_stmt 1 view .LVU2
  47              	.LVL1:
 110:Drivers/STM32F7xx_HAL_Driver/Src/stm32f7xx_hal_rcc_ex.c ****   uint32_t tmpreg0 = 0;
  48              		.loc 1 110 3 view .LVU3
 111:Drivers/STM32F7xx_HAL_Driver/Src/stm32f7xx_hal_rcc_ex.c ****   uint32_t tmpreg1 = 0;
  49              		.loc 1 111 3 view .LVU4
 112:Drivers/STM32F7xx_HAL_Driver/Src/stm32f7xx_hal_rcc_ex.c ****   uint32_t plli2sused = 0;
  50              		.loc 1 112 3 view .LVU5
 113:Drivers/STM32F7xx_HAL_Driver/Src/stm32f7xx_hal_rcc_ex.c ****   uint32_t pllsaiused = 0;
  51              		.loc 1 113 3 view .LVU6
 114:Drivers/STM32F7xx_HAL_Driver/Src/stm32f7xx_hal_rcc_ex.c **** 
 115:Drivers/STM32F7xx_HAL_Driver/Src/stm32f7xx_hal_rcc_ex.c ****   /* Check the parameters */
 116:Drivers/STM32F7xx_HAL_Driver/Src/stm32f7xx_hal_rcc_ex.c ****   assert_param(IS_RCC_PERIPHCLOCK(PeriphClkInit->PeriphClockSelection));
  52              		.loc 1 116 3 view .LVU7
 117:Drivers/STM32F7xx_HAL_Driver/Src/stm32f7xx_hal_rcc_ex.c **** 
 118:Drivers/STM32F7xx_HAL_Driver/Src/stm32f7xx_hal_rcc_ex.c ****   /*----------------------------------- I2S configuration ----------------------------------*/
 119:Drivers/STM32F7xx_HAL_Driver/Src/stm32f7xx_hal_rcc_ex.c ****   if(((PeriphClkInit->PeriphClockSelection) & RCC_PERIPHCLK_I2S) == (RCC_PERIPHCLK_I2S))
  53              		.loc 1 119 3 view .LVU8
ARM GAS  /tmp/ccLEMPDN.s 			page 4


  54              		.loc 1 119 21 is_stmt 0 view .LVU9
  55 0006 0668     		ldr	r6, [r0]
  56              		.loc 1 119 5 view .LVU10
  57 0008 16F00106 		ands	r6, r6, #1
  58 000c 0DD0     		beq	.L2
 120:Drivers/STM32F7xx_HAL_Driver/Src/stm32f7xx_hal_rcc_ex.c ****   {
 121:Drivers/STM32F7xx_HAL_Driver/Src/stm32f7xx_hal_rcc_ex.c ****     /* Check the parameters */
 122:Drivers/STM32F7xx_HAL_Driver/Src/stm32f7xx_hal_rcc_ex.c ****     assert_param(IS_RCC_I2SCLKSOURCE(PeriphClkInit->I2sClockSelection));
  59              		.loc 1 122 5 is_stmt 1 view .LVU11
 123:Drivers/STM32F7xx_HAL_Driver/Src/stm32f7xx_hal_rcc_ex.c **** 
 124:Drivers/STM32F7xx_HAL_Driver/Src/stm32f7xx_hal_rcc_ex.c ****     /* Configure I2S Clock source */
 125:Drivers/STM32F7xx_HAL_Driver/Src/stm32f7xx_hal_rcc_ex.c ****     __HAL_RCC_I2S_CONFIG(PeriphClkInit->I2sClockSelection);
  60              		.loc 1 125 5 view .LVU12
  61              		.loc 1 125 5 view .LVU13
  62 000e BC4B     		ldr	r3, .L87
  63 0010 9A68     		ldr	r2, [r3, #8]
  64 0012 22F40002 		bic	r2, r2, #8388608
  65 0016 9A60     		str	r2, [r3, #8]
  66              		.loc 1 125 5 view .LVU14
  67 0018 9A68     		ldr	r2, [r3, #8]
  68 001a 416B     		ldr	r1, [r0, #52]
  69 001c 0A43     		orrs	r2, r2, r1
  70 001e 9A60     		str	r2, [r3, #8]
  71              		.loc 1 125 5 view .LVU15
 126:Drivers/STM32F7xx_HAL_Driver/Src/stm32f7xx_hal_rcc_ex.c **** 
 127:Drivers/STM32F7xx_HAL_Driver/Src/stm32f7xx_hal_rcc_ex.c ****     /* Enable the PLLI2S when it's used as clock source for I2S */
 128:Drivers/STM32F7xx_HAL_Driver/Src/stm32f7xx_hal_rcc_ex.c ****     if(PeriphClkInit->I2sClockSelection == RCC_I2SCLKSOURCE_PLLI2S)
  72              		.loc 1 128 5 view .LVU16
  73              		.loc 1 128 21 is_stmt 0 view .LVU17
  74 0020 436B     		ldr	r3, [r0, #52]
  75              		.loc 1 128 7 view .LVU18
  76 0022 002B     		cmp	r3, #0
  77 0024 00F06381 		beq	.L59
 112:Drivers/STM32F7xx_HAL_Driver/Src/stm32f7xx_hal_rcc_ex.c ****   uint32_t pllsaiused = 0;
  78              		.loc 1 112 12 view .LVU19
  79 0028 0026     		movs	r6, #0
  80              	.L2:
  81              	.LVL2:
 129:Drivers/STM32F7xx_HAL_Driver/Src/stm32f7xx_hal_rcc_ex.c ****     {
 130:Drivers/STM32F7xx_HAL_Driver/Src/stm32f7xx_hal_rcc_ex.c ****       plli2sused = 1;
 131:Drivers/STM32F7xx_HAL_Driver/Src/stm32f7xx_hal_rcc_ex.c ****     }
 132:Drivers/STM32F7xx_HAL_Driver/Src/stm32f7xx_hal_rcc_ex.c ****   }
 133:Drivers/STM32F7xx_HAL_Driver/Src/stm32f7xx_hal_rcc_ex.c **** 
 134:Drivers/STM32F7xx_HAL_Driver/Src/stm32f7xx_hal_rcc_ex.c ****   /*------------------------------------ SAI1 configuration --------------------------------------*
 135:Drivers/STM32F7xx_HAL_Driver/Src/stm32f7xx_hal_rcc_ex.c ****   if(((PeriphClkInit->PeriphClockSelection) & RCC_PERIPHCLK_SAI1) == (RCC_PERIPHCLK_SAI1))
  82              		.loc 1 135 3 is_stmt 1 view .LVU20
  83              		.loc 1 135 21 is_stmt 0 view .LVU21
  84 002a 2568     		ldr	r5, [r4]
  85              		.loc 1 135 5 view .LVU22
  86 002c 15F40025 		ands	r5, r5, #524288
  87 0030 11D0     		beq	.L3
 136:Drivers/STM32F7xx_HAL_Driver/Src/stm32f7xx_hal_rcc_ex.c ****   {
 137:Drivers/STM32F7xx_HAL_Driver/Src/stm32f7xx_hal_rcc_ex.c ****     /* Check the parameters */
 138:Drivers/STM32F7xx_HAL_Driver/Src/stm32f7xx_hal_rcc_ex.c ****     assert_param(IS_RCC_SAI1CLKSOURCE(PeriphClkInit->Sai1ClockSelection));
  88              		.loc 1 138 5 is_stmt 1 view .LVU23
 139:Drivers/STM32F7xx_HAL_Driver/Src/stm32f7xx_hal_rcc_ex.c **** 
 140:Drivers/STM32F7xx_HAL_Driver/Src/stm32f7xx_hal_rcc_ex.c ****     /* Configure SAI1 Clock source */
ARM GAS  /tmp/ccLEMPDN.s 			page 5


 141:Drivers/STM32F7xx_HAL_Driver/Src/stm32f7xx_hal_rcc_ex.c ****     __HAL_RCC_SAI1_CONFIG(PeriphClkInit->Sai1ClockSelection);
  89              		.loc 1 141 5 view .LVU24
  90 0032 B34A     		ldr	r2, .L87
  91 0034 D2F88C30 		ldr	r3, [r2, #140]
  92 0038 23F44013 		bic	r3, r3, #3145728
  93 003c E16B     		ldr	r1, [r4, #60]
  94 003e 0B43     		orrs	r3, r3, r1
  95 0040 C2F88C30 		str	r3, [r2, #140]
 142:Drivers/STM32F7xx_HAL_Driver/Src/stm32f7xx_hal_rcc_ex.c ****     /* Enable the PLLI2S when it's used as clock source for SAI */
 143:Drivers/STM32F7xx_HAL_Driver/Src/stm32f7xx_hal_rcc_ex.c ****     if(PeriphClkInit->Sai1ClockSelection == RCC_SAI1CLKSOURCE_PLLI2S)
  96              		.loc 1 143 5 view .LVU25
  97              		.loc 1 143 21 is_stmt 0 view .LVU26
  98 0044 E36B     		ldr	r3, [r4, #60]
  99              		.loc 1 143 7 view .LVU27
 100 0046 B3F5801F 		cmp	r3, #1048576
 101 004a 00F05281 		beq	.L75
 102              	.LVL3:
 103              	.L4:
 144:Drivers/STM32F7xx_HAL_Driver/Src/stm32f7xx_hal_rcc_ex.c ****     {
 145:Drivers/STM32F7xx_HAL_Driver/Src/stm32f7xx_hal_rcc_ex.c ****       plli2sused = 1;
 146:Drivers/STM32F7xx_HAL_Driver/Src/stm32f7xx_hal_rcc_ex.c ****     }
 147:Drivers/STM32F7xx_HAL_Driver/Src/stm32f7xx_hal_rcc_ex.c ****     /* Enable the PLLSAI when it's used as clock source for SAI */
 148:Drivers/STM32F7xx_HAL_Driver/Src/stm32f7xx_hal_rcc_ex.c ****     if(PeriphClkInit->Sai1ClockSelection == RCC_SAI1CLKSOURCE_PLLSAI)
 104              		.loc 1 148 5 is_stmt 1 view .LVU28
 105              		.loc 1 148 7 is_stmt 0 view .LVU29
 106 004e 002B     		cmp	r3, #0
 107 0050 00F05181 		beq	.L61
 113:Drivers/STM32F7xx_HAL_Driver/Src/stm32f7xx_hal_rcc_ex.c **** 
 108              		.loc 1 113 12 view .LVU30
 109 0054 0025     		movs	r5, #0
 110              	.L3:
 111              	.LVL4:
 149:Drivers/STM32F7xx_HAL_Driver/Src/stm32f7xx_hal_rcc_ex.c ****     {
 150:Drivers/STM32F7xx_HAL_Driver/Src/stm32f7xx_hal_rcc_ex.c ****       pllsaiused = 1;
 151:Drivers/STM32F7xx_HAL_Driver/Src/stm32f7xx_hal_rcc_ex.c ****     }
 152:Drivers/STM32F7xx_HAL_Driver/Src/stm32f7xx_hal_rcc_ex.c ****   }
 153:Drivers/STM32F7xx_HAL_Driver/Src/stm32f7xx_hal_rcc_ex.c **** 
 154:Drivers/STM32F7xx_HAL_Driver/Src/stm32f7xx_hal_rcc_ex.c ****   /*------------------------------------ SAI2 configuration --------------------------------------*
 155:Drivers/STM32F7xx_HAL_Driver/Src/stm32f7xx_hal_rcc_ex.c ****   if(((PeriphClkInit->PeriphClockSelection) & RCC_PERIPHCLK_SAI2) == (RCC_PERIPHCLK_SAI2))
 112              		.loc 1 155 3 is_stmt 1 view .LVU31
 113              		.loc 1 155 21 is_stmt 0 view .LVU32
 114 0056 2368     		ldr	r3, [r4]
 115              		.loc 1 155 5 view .LVU33
 116 0058 13F4801F 		tst	r3, #1048576
 117 005c 0FD0     		beq	.L5
 156:Drivers/STM32F7xx_HAL_Driver/Src/stm32f7xx_hal_rcc_ex.c ****   {
 157:Drivers/STM32F7xx_HAL_Driver/Src/stm32f7xx_hal_rcc_ex.c ****     /* Check the parameters */
 158:Drivers/STM32F7xx_HAL_Driver/Src/stm32f7xx_hal_rcc_ex.c ****     assert_param(IS_RCC_SAI2CLKSOURCE(PeriphClkInit->Sai2ClockSelection));
 118              		.loc 1 158 5 is_stmt 1 view .LVU34
 159:Drivers/STM32F7xx_HAL_Driver/Src/stm32f7xx_hal_rcc_ex.c **** 
 160:Drivers/STM32F7xx_HAL_Driver/Src/stm32f7xx_hal_rcc_ex.c ****     /* Configure SAI2 Clock source */
 161:Drivers/STM32F7xx_HAL_Driver/Src/stm32f7xx_hal_rcc_ex.c ****     __HAL_RCC_SAI2_CONFIG(PeriphClkInit->Sai2ClockSelection);
 119              		.loc 1 161 5 view .LVU35
 120 005e A84A     		ldr	r2, .L87
 121 0060 D2F88C30 		ldr	r3, [r2, #140]
 122 0064 23F44003 		bic	r3, r3, #12582912
 123 0068 216C     		ldr	r1, [r4, #64]
ARM GAS  /tmp/ccLEMPDN.s 			page 6


 124 006a 0B43     		orrs	r3, r3, r1
 125 006c C2F88C30 		str	r3, [r2, #140]
 162:Drivers/STM32F7xx_HAL_Driver/Src/stm32f7xx_hal_rcc_ex.c **** 
 163:Drivers/STM32F7xx_HAL_Driver/Src/stm32f7xx_hal_rcc_ex.c ****     /* Enable the PLLI2S when it's used as clock source for SAI */
 164:Drivers/STM32F7xx_HAL_Driver/Src/stm32f7xx_hal_rcc_ex.c ****     if(PeriphClkInit->Sai2ClockSelection == RCC_SAI2CLKSOURCE_PLLI2S)
 126              		.loc 1 164 5 view .LVU36
 127              		.loc 1 164 21 is_stmt 0 view .LVU37
 128 0070 236C     		ldr	r3, [r4, #64]
 129              		.loc 1 164 7 view .LVU38
 130 0072 B3F5800F 		cmp	r3, #4194304
 131 0076 00F04081 		beq	.L76
 132              	.LVL5:
 133              	.L6:
 165:Drivers/STM32F7xx_HAL_Driver/Src/stm32f7xx_hal_rcc_ex.c ****     {
 166:Drivers/STM32F7xx_HAL_Driver/Src/stm32f7xx_hal_rcc_ex.c ****       plli2sused = 1;
 167:Drivers/STM32F7xx_HAL_Driver/Src/stm32f7xx_hal_rcc_ex.c ****     }
 168:Drivers/STM32F7xx_HAL_Driver/Src/stm32f7xx_hal_rcc_ex.c ****     /* Enable the PLLSAI when it's used as clock source for SAI */
 169:Drivers/STM32F7xx_HAL_Driver/Src/stm32f7xx_hal_rcc_ex.c ****     if(PeriphClkInit->Sai2ClockSelection == RCC_SAI2CLKSOURCE_PLLSAI)
 134              		.loc 1 169 5 is_stmt 1 view .LVU39
 135              		.loc 1 169 7 is_stmt 0 view .LVU40
 136 007a 03B9     		cbnz	r3, .L5
 170:Drivers/STM32F7xx_HAL_Driver/Src/stm32f7xx_hal_rcc_ex.c ****     {
 171:Drivers/STM32F7xx_HAL_Driver/Src/stm32f7xx_hal_rcc_ex.c ****       pllsaiused = 1;
 137              		.loc 1 171 18 view .LVU41
 138 007c 0125     		movs	r5, #1
 139              	.LVL6:
 140              	.L5:
 172:Drivers/STM32F7xx_HAL_Driver/Src/stm32f7xx_hal_rcc_ex.c ****     }
 173:Drivers/STM32F7xx_HAL_Driver/Src/stm32f7xx_hal_rcc_ex.c ****   }
 174:Drivers/STM32F7xx_HAL_Driver/Src/stm32f7xx_hal_rcc_ex.c **** 
 175:Drivers/STM32F7xx_HAL_Driver/Src/stm32f7xx_hal_rcc_ex.c ****   /*-------------------------------------- SPDIF-RX Configuration ---------------------------------
 176:Drivers/STM32F7xx_HAL_Driver/Src/stm32f7xx_hal_rcc_ex.c ****   if(((PeriphClkInit->PeriphClockSelection) & RCC_PERIPHCLK_SPDIFRX) == RCC_PERIPHCLK_SPDIFRX)
 141              		.loc 1 176 3 is_stmt 1 view .LVU42
 142              		.loc 1 176 21 is_stmt 0 view .LVU43
 143 007e 2368     		ldr	r3, [r4]
 144              		.loc 1 176 5 view .LVU44
 145 0080 13F0807F 		tst	r3, #16777216
 146 0084 00D0     		beq	.L7
 177:Drivers/STM32F7xx_HAL_Driver/Src/stm32f7xx_hal_rcc_ex.c ****   {
 178:Drivers/STM32F7xx_HAL_Driver/Src/stm32f7xx_hal_rcc_ex.c ****       plli2sused = 1;
 147              		.loc 1 178 18 view .LVU45
 148 0086 0126     		movs	r6, #1
 149              	.LVL7:
 150              	.L7:
 179:Drivers/STM32F7xx_HAL_Driver/Src/stm32f7xx_hal_rcc_ex.c ****   }
 180:Drivers/STM32F7xx_HAL_Driver/Src/stm32f7xx_hal_rcc_ex.c **** 
 181:Drivers/STM32F7xx_HAL_Driver/Src/stm32f7xx_hal_rcc_ex.c ****   /*------------------------------------ RTC configuration --------------------------------------*/
 182:Drivers/STM32F7xx_HAL_Driver/Src/stm32f7xx_hal_rcc_ex.c ****   if(((PeriphClkInit->PeriphClockSelection) & RCC_PERIPHCLK_RTC) == (RCC_PERIPHCLK_RTC))
 151              		.loc 1 182 3 is_stmt 1 view .LVU46
 152              		.loc 1 182 5 is_stmt 0 view .LVU47
 153 0088 13F0200F 		tst	r3, #32
 154 008c 40F03A81 		bne	.L77
 155              	.LVL8:
 156              	.L8:
 183:Drivers/STM32F7xx_HAL_Driver/Src/stm32f7xx_hal_rcc_ex.c ****   {
 184:Drivers/STM32F7xx_HAL_Driver/Src/stm32f7xx_hal_rcc_ex.c ****     /* Check for RTC Parameters used to output RTCCLK */
 185:Drivers/STM32F7xx_HAL_Driver/Src/stm32f7xx_hal_rcc_ex.c ****     assert_param(IS_RCC_RTCCLKSOURCE(PeriphClkInit->RTCClockSelection));
ARM GAS  /tmp/ccLEMPDN.s 			page 7


 186:Drivers/STM32F7xx_HAL_Driver/Src/stm32f7xx_hal_rcc_ex.c **** 
 187:Drivers/STM32F7xx_HAL_Driver/Src/stm32f7xx_hal_rcc_ex.c ****     /* Enable Power Clock*/
 188:Drivers/STM32F7xx_HAL_Driver/Src/stm32f7xx_hal_rcc_ex.c ****     __HAL_RCC_PWR_CLK_ENABLE();
 189:Drivers/STM32F7xx_HAL_Driver/Src/stm32f7xx_hal_rcc_ex.c **** 
 190:Drivers/STM32F7xx_HAL_Driver/Src/stm32f7xx_hal_rcc_ex.c ****     /* Enable write access to Backup domain */
 191:Drivers/STM32F7xx_HAL_Driver/Src/stm32f7xx_hal_rcc_ex.c ****     PWR->CR1 |= PWR_CR1_DBP;
 192:Drivers/STM32F7xx_HAL_Driver/Src/stm32f7xx_hal_rcc_ex.c **** 
 193:Drivers/STM32F7xx_HAL_Driver/Src/stm32f7xx_hal_rcc_ex.c ****     /* Get Start Tick*/
 194:Drivers/STM32F7xx_HAL_Driver/Src/stm32f7xx_hal_rcc_ex.c ****     tickstart = HAL_GetTick();
 195:Drivers/STM32F7xx_HAL_Driver/Src/stm32f7xx_hal_rcc_ex.c **** 
 196:Drivers/STM32F7xx_HAL_Driver/Src/stm32f7xx_hal_rcc_ex.c ****     /* Wait for Backup domain Write protection disable */
 197:Drivers/STM32F7xx_HAL_Driver/Src/stm32f7xx_hal_rcc_ex.c ****     while((PWR->CR1 & PWR_CR1_DBP) == RESET)
 198:Drivers/STM32F7xx_HAL_Driver/Src/stm32f7xx_hal_rcc_ex.c ****     {
 199:Drivers/STM32F7xx_HAL_Driver/Src/stm32f7xx_hal_rcc_ex.c ****       if((HAL_GetTick() - tickstart) > RCC_DBP_TIMEOUT_VALUE)
 200:Drivers/STM32F7xx_HAL_Driver/Src/stm32f7xx_hal_rcc_ex.c ****       {
 201:Drivers/STM32F7xx_HAL_Driver/Src/stm32f7xx_hal_rcc_ex.c ****         return HAL_TIMEOUT;
 202:Drivers/STM32F7xx_HAL_Driver/Src/stm32f7xx_hal_rcc_ex.c ****       }
 203:Drivers/STM32F7xx_HAL_Driver/Src/stm32f7xx_hal_rcc_ex.c ****     }
 204:Drivers/STM32F7xx_HAL_Driver/Src/stm32f7xx_hal_rcc_ex.c **** 
 205:Drivers/STM32F7xx_HAL_Driver/Src/stm32f7xx_hal_rcc_ex.c ****     /* Reset the Backup domain only if the RTC Clock source selection is modified */
 206:Drivers/STM32F7xx_HAL_Driver/Src/stm32f7xx_hal_rcc_ex.c ****     tmpreg0 = (RCC->BDCR & RCC_BDCR_RTCSEL);
 207:Drivers/STM32F7xx_HAL_Driver/Src/stm32f7xx_hal_rcc_ex.c **** 
 208:Drivers/STM32F7xx_HAL_Driver/Src/stm32f7xx_hal_rcc_ex.c ****     if((tmpreg0 != 0x00000000U) && (tmpreg0 != (PeriphClkInit->RTCClockSelection & RCC_BDCR_RTCSEL)
 209:Drivers/STM32F7xx_HAL_Driver/Src/stm32f7xx_hal_rcc_ex.c ****     {
 210:Drivers/STM32F7xx_HAL_Driver/Src/stm32f7xx_hal_rcc_ex.c ****       /* Store the content of BDCR register before the reset of Backup Domain */
 211:Drivers/STM32F7xx_HAL_Driver/Src/stm32f7xx_hal_rcc_ex.c ****       tmpreg0 = (RCC->BDCR & ~(RCC_BDCR_RTCSEL));
 212:Drivers/STM32F7xx_HAL_Driver/Src/stm32f7xx_hal_rcc_ex.c **** 
 213:Drivers/STM32F7xx_HAL_Driver/Src/stm32f7xx_hal_rcc_ex.c ****       /* RTC Clock selection can be changed only if the Backup Domain is reset */
 214:Drivers/STM32F7xx_HAL_Driver/Src/stm32f7xx_hal_rcc_ex.c ****       __HAL_RCC_BACKUPRESET_FORCE();
 215:Drivers/STM32F7xx_HAL_Driver/Src/stm32f7xx_hal_rcc_ex.c ****       __HAL_RCC_BACKUPRESET_RELEASE();
 216:Drivers/STM32F7xx_HAL_Driver/Src/stm32f7xx_hal_rcc_ex.c **** 
 217:Drivers/STM32F7xx_HAL_Driver/Src/stm32f7xx_hal_rcc_ex.c ****       /* Restore the Content of BDCR register */
 218:Drivers/STM32F7xx_HAL_Driver/Src/stm32f7xx_hal_rcc_ex.c ****       RCC->BDCR = tmpreg0;
 219:Drivers/STM32F7xx_HAL_Driver/Src/stm32f7xx_hal_rcc_ex.c **** 
 220:Drivers/STM32F7xx_HAL_Driver/Src/stm32f7xx_hal_rcc_ex.c ****       /* Wait for LSE reactivation if LSE was enable prior to Backup Domain reset */
 221:Drivers/STM32F7xx_HAL_Driver/Src/stm32f7xx_hal_rcc_ex.c ****       if (HAL_IS_BIT_SET(RCC->BDCR, RCC_BDCR_LSEON))
 222:Drivers/STM32F7xx_HAL_Driver/Src/stm32f7xx_hal_rcc_ex.c ****       {
 223:Drivers/STM32F7xx_HAL_Driver/Src/stm32f7xx_hal_rcc_ex.c ****         /* Get Start Tick*/
 224:Drivers/STM32F7xx_HAL_Driver/Src/stm32f7xx_hal_rcc_ex.c ****         tickstart = HAL_GetTick();
 225:Drivers/STM32F7xx_HAL_Driver/Src/stm32f7xx_hal_rcc_ex.c **** 
 226:Drivers/STM32F7xx_HAL_Driver/Src/stm32f7xx_hal_rcc_ex.c ****         /* Wait till LSE is ready */
 227:Drivers/STM32F7xx_HAL_Driver/Src/stm32f7xx_hal_rcc_ex.c ****         while(__HAL_RCC_GET_FLAG(RCC_FLAG_LSERDY) == RESET)
 228:Drivers/STM32F7xx_HAL_Driver/Src/stm32f7xx_hal_rcc_ex.c ****         {
 229:Drivers/STM32F7xx_HAL_Driver/Src/stm32f7xx_hal_rcc_ex.c ****           if((HAL_GetTick() - tickstart ) > RCC_LSE_TIMEOUT_VALUE)
 230:Drivers/STM32F7xx_HAL_Driver/Src/stm32f7xx_hal_rcc_ex.c ****           {
 231:Drivers/STM32F7xx_HAL_Driver/Src/stm32f7xx_hal_rcc_ex.c ****             return HAL_TIMEOUT;
 232:Drivers/STM32F7xx_HAL_Driver/Src/stm32f7xx_hal_rcc_ex.c ****           }
 233:Drivers/STM32F7xx_HAL_Driver/Src/stm32f7xx_hal_rcc_ex.c ****         }
 234:Drivers/STM32F7xx_HAL_Driver/Src/stm32f7xx_hal_rcc_ex.c ****       }
 235:Drivers/STM32F7xx_HAL_Driver/Src/stm32f7xx_hal_rcc_ex.c ****     }
 236:Drivers/STM32F7xx_HAL_Driver/Src/stm32f7xx_hal_rcc_ex.c ****     __HAL_RCC_RTC_CONFIG(PeriphClkInit->RTCClockSelection);
 157              		.loc 1 236 5 is_stmt 1 discriminator 5 view .LVU48
 237:Drivers/STM32F7xx_HAL_Driver/Src/stm32f7xx_hal_rcc_ex.c ****   }
 238:Drivers/STM32F7xx_HAL_Driver/Src/stm32f7xx_hal_rcc_ex.c **** 
 239:Drivers/STM32F7xx_HAL_Driver/Src/stm32f7xx_hal_rcc_ex.c ****   /*------------------------------------ TIM configuration --------------------------------------*/
 240:Drivers/STM32F7xx_HAL_Driver/Src/stm32f7xx_hal_rcc_ex.c ****   if(((PeriphClkInit->PeriphClockSelection) & RCC_PERIPHCLK_TIM) == (RCC_PERIPHCLK_TIM))
 158              		.loc 1 240 3 discriminator 5 view .LVU49
ARM GAS  /tmp/ccLEMPDN.s 			page 8


 159              		.loc 1 240 21 is_stmt 0 discriminator 5 view .LVU50
 160 0090 2368     		ldr	r3, [r4]
 161              		.loc 1 240 5 discriminator 5 view .LVU51
 162 0092 13F0100F 		tst	r3, #16
 163 0096 0CD0     		beq	.L17
 241:Drivers/STM32F7xx_HAL_Driver/Src/stm32f7xx_hal_rcc_ex.c ****   {
 242:Drivers/STM32F7xx_HAL_Driver/Src/stm32f7xx_hal_rcc_ex.c ****     /* Check the parameters */
 243:Drivers/STM32F7xx_HAL_Driver/Src/stm32f7xx_hal_rcc_ex.c ****     assert_param(IS_RCC_TIMPRES(PeriphClkInit->TIMPresSelection));
 164              		.loc 1 243 5 is_stmt 1 view .LVU52
 244:Drivers/STM32F7xx_HAL_Driver/Src/stm32f7xx_hal_rcc_ex.c **** 
 245:Drivers/STM32F7xx_HAL_Driver/Src/stm32f7xx_hal_rcc_ex.c ****     /* Configure Timer Prescaler */
 246:Drivers/STM32F7xx_HAL_Driver/Src/stm32f7xx_hal_rcc_ex.c ****     __HAL_RCC_TIMCLKPRESCALER(PeriphClkInit->TIMPresSelection);
 165              		.loc 1 246 5 view .LVU53
 166              		.loc 1 246 5 view .LVU54
 167 0098 994B     		ldr	r3, .L87
 168 009a D3F88C20 		ldr	r2, [r3, #140]
 169 009e 22F08072 		bic	r2, r2, #16777216
 170 00a2 C3F88C20 		str	r2, [r3, #140]
 171              		.loc 1 246 5 view .LVU55
 172 00a6 D3F88C20 		ldr	r2, [r3, #140]
 173 00aa A16B     		ldr	r1, [r4, #56]
 174 00ac 0A43     		orrs	r2, r2, r1
 175 00ae C3F88C20 		str	r2, [r3, #140]
 176              	.L17:
 177              		.loc 1 246 5 discriminator 1 view .LVU56
 247:Drivers/STM32F7xx_HAL_Driver/Src/stm32f7xx_hal_rcc_ex.c ****   }
 248:Drivers/STM32F7xx_HAL_Driver/Src/stm32f7xx_hal_rcc_ex.c **** 
 249:Drivers/STM32F7xx_HAL_Driver/Src/stm32f7xx_hal_rcc_ex.c ****   /*-------------------------------------- I2C1 Configuration -----------------------------------*/
 250:Drivers/STM32F7xx_HAL_Driver/Src/stm32f7xx_hal_rcc_ex.c ****   if(((PeriphClkInit->PeriphClockSelection) & RCC_PERIPHCLK_I2C1) == RCC_PERIPHCLK_I2C1)
 178              		.loc 1 250 3 discriminator 1 view .LVU57
 179              		.loc 1 250 21 is_stmt 0 discriminator 1 view .LVU58
 180 00b2 2368     		ldr	r3, [r4]
 181              		.loc 1 250 5 discriminator 1 view .LVU59
 182 00b4 13F4804F 		tst	r3, #16384
 183 00b8 08D0     		beq	.L18
 251:Drivers/STM32F7xx_HAL_Driver/Src/stm32f7xx_hal_rcc_ex.c ****   {
 252:Drivers/STM32F7xx_HAL_Driver/Src/stm32f7xx_hal_rcc_ex.c ****     /* Check the parameters */
 253:Drivers/STM32F7xx_HAL_Driver/Src/stm32f7xx_hal_rcc_ex.c ****     assert_param(IS_RCC_I2C1CLKSOURCE(PeriphClkInit->I2c1ClockSelection));
 184              		.loc 1 253 5 is_stmt 1 view .LVU60
 254:Drivers/STM32F7xx_HAL_Driver/Src/stm32f7xx_hal_rcc_ex.c **** 
 255:Drivers/STM32F7xx_HAL_Driver/Src/stm32f7xx_hal_rcc_ex.c ****     /* Configure the I2C1 clock source */
 256:Drivers/STM32F7xx_HAL_Driver/Src/stm32f7xx_hal_rcc_ex.c ****     __HAL_RCC_I2C1_CONFIG(PeriphClkInit->I2c1ClockSelection);
 185              		.loc 1 256 5 view .LVU61
 186 00ba 914A     		ldr	r2, .L87
 187 00bc D2F89030 		ldr	r3, [r2, #144]
 188 00c0 23F44033 		bic	r3, r3, #196608
 189 00c4 616E     		ldr	r1, [r4, #100]
 190 00c6 0B43     		orrs	r3, r3, r1
 191 00c8 C2F89030 		str	r3, [r2, #144]
 192              	.L18:
 257:Drivers/STM32F7xx_HAL_Driver/Src/stm32f7xx_hal_rcc_ex.c ****   }
 258:Drivers/STM32F7xx_HAL_Driver/Src/stm32f7xx_hal_rcc_ex.c **** 
 259:Drivers/STM32F7xx_HAL_Driver/Src/stm32f7xx_hal_rcc_ex.c ****   /*-------------------------------------- I2C2 Configuration -----------------------------------*/
 260:Drivers/STM32F7xx_HAL_Driver/Src/stm32f7xx_hal_rcc_ex.c ****   if(((PeriphClkInit->PeriphClockSelection) & RCC_PERIPHCLK_I2C2) == RCC_PERIPHCLK_I2C2)
 193              		.loc 1 260 3 view .LVU62
 194              		.loc 1 260 21 is_stmt 0 view .LVU63
 195 00cc 2368     		ldr	r3, [r4]
ARM GAS  /tmp/ccLEMPDN.s 			page 9


 196              		.loc 1 260 5 view .LVU64
 197 00ce 13F4004F 		tst	r3, #32768
 198 00d2 08D0     		beq	.L19
 261:Drivers/STM32F7xx_HAL_Driver/Src/stm32f7xx_hal_rcc_ex.c ****   {
 262:Drivers/STM32F7xx_HAL_Driver/Src/stm32f7xx_hal_rcc_ex.c ****     /* Check the parameters */
 263:Drivers/STM32F7xx_HAL_Driver/Src/stm32f7xx_hal_rcc_ex.c ****     assert_param(IS_RCC_I2C2CLKSOURCE(PeriphClkInit->I2c2ClockSelection));
 199              		.loc 1 263 5 is_stmt 1 view .LVU65
 264:Drivers/STM32F7xx_HAL_Driver/Src/stm32f7xx_hal_rcc_ex.c **** 
 265:Drivers/STM32F7xx_HAL_Driver/Src/stm32f7xx_hal_rcc_ex.c ****     /* Configure the I2C2 clock source */
 266:Drivers/STM32F7xx_HAL_Driver/Src/stm32f7xx_hal_rcc_ex.c ****     __HAL_RCC_I2C2_CONFIG(PeriphClkInit->I2c2ClockSelection);
 200              		.loc 1 266 5 view .LVU66
 201 00d4 8A4A     		ldr	r2, .L87
 202 00d6 D2F89030 		ldr	r3, [r2, #144]
 203 00da 23F44023 		bic	r3, r3, #786432
 204 00de A16E     		ldr	r1, [r4, #104]
 205 00e0 0B43     		orrs	r3, r3, r1
 206 00e2 C2F89030 		str	r3, [r2, #144]
 207              	.L19:
 267:Drivers/STM32F7xx_HAL_Driver/Src/stm32f7xx_hal_rcc_ex.c ****   }
 268:Drivers/STM32F7xx_HAL_Driver/Src/stm32f7xx_hal_rcc_ex.c **** 
 269:Drivers/STM32F7xx_HAL_Driver/Src/stm32f7xx_hal_rcc_ex.c ****   /*-------------------------------------- I2C3 Configuration -----------------------------------*/
 270:Drivers/STM32F7xx_HAL_Driver/Src/stm32f7xx_hal_rcc_ex.c ****   if(((PeriphClkInit->PeriphClockSelection) & RCC_PERIPHCLK_I2C3) == RCC_PERIPHCLK_I2C3)
 208              		.loc 1 270 3 view .LVU67
 209              		.loc 1 270 21 is_stmt 0 view .LVU68
 210 00e6 2368     		ldr	r3, [r4]
 211              		.loc 1 270 5 view .LVU69
 212 00e8 13F4803F 		tst	r3, #65536
 213 00ec 08D0     		beq	.L20
 271:Drivers/STM32F7xx_HAL_Driver/Src/stm32f7xx_hal_rcc_ex.c ****   {
 272:Drivers/STM32F7xx_HAL_Driver/Src/stm32f7xx_hal_rcc_ex.c ****     /* Check the parameters */
 273:Drivers/STM32F7xx_HAL_Driver/Src/stm32f7xx_hal_rcc_ex.c ****     assert_param(IS_RCC_I2C3CLKSOURCE(PeriphClkInit->I2c3ClockSelection));
 214              		.loc 1 273 5 is_stmt 1 view .LVU70
 274:Drivers/STM32F7xx_HAL_Driver/Src/stm32f7xx_hal_rcc_ex.c **** 
 275:Drivers/STM32F7xx_HAL_Driver/Src/stm32f7xx_hal_rcc_ex.c ****     /* Configure the I2C3 clock source */
 276:Drivers/STM32F7xx_HAL_Driver/Src/stm32f7xx_hal_rcc_ex.c ****     __HAL_RCC_I2C3_CONFIG(PeriphClkInit->I2c3ClockSelection);
 215              		.loc 1 276 5 view .LVU71
 216 00ee 844A     		ldr	r2, .L87
 217 00f0 D2F89030 		ldr	r3, [r2, #144]
 218 00f4 23F44013 		bic	r3, r3, #3145728
 219 00f8 E16E     		ldr	r1, [r4, #108]
 220 00fa 0B43     		orrs	r3, r3, r1
 221 00fc C2F89030 		str	r3, [r2, #144]
 222              	.L20:
 277:Drivers/STM32F7xx_HAL_Driver/Src/stm32f7xx_hal_rcc_ex.c ****   }
 278:Drivers/STM32F7xx_HAL_Driver/Src/stm32f7xx_hal_rcc_ex.c **** 
 279:Drivers/STM32F7xx_HAL_Driver/Src/stm32f7xx_hal_rcc_ex.c ****   /*-------------------------------------- I2C4 Configuration -----------------------------------*/
 280:Drivers/STM32F7xx_HAL_Driver/Src/stm32f7xx_hal_rcc_ex.c ****   if(((PeriphClkInit->PeriphClockSelection) & RCC_PERIPHCLK_I2C4) == RCC_PERIPHCLK_I2C4)
 223              		.loc 1 280 3 view .LVU72
 224              		.loc 1 280 21 is_stmt 0 view .LVU73
 225 0100 2368     		ldr	r3, [r4]
 226              		.loc 1 280 5 view .LVU74
 227 0102 13F4003F 		tst	r3, #131072
 228 0106 08D0     		beq	.L21
 281:Drivers/STM32F7xx_HAL_Driver/Src/stm32f7xx_hal_rcc_ex.c ****   {
 282:Drivers/STM32F7xx_HAL_Driver/Src/stm32f7xx_hal_rcc_ex.c ****     /* Check the parameters */
 283:Drivers/STM32F7xx_HAL_Driver/Src/stm32f7xx_hal_rcc_ex.c ****     assert_param(IS_RCC_I2C4CLKSOURCE(PeriphClkInit->I2c4ClockSelection));
 229              		.loc 1 283 5 is_stmt 1 view .LVU75
ARM GAS  /tmp/ccLEMPDN.s 			page 10


 284:Drivers/STM32F7xx_HAL_Driver/Src/stm32f7xx_hal_rcc_ex.c **** 
 285:Drivers/STM32F7xx_HAL_Driver/Src/stm32f7xx_hal_rcc_ex.c ****     /* Configure the I2C4 clock source */
 286:Drivers/STM32F7xx_HAL_Driver/Src/stm32f7xx_hal_rcc_ex.c ****     __HAL_RCC_I2C4_CONFIG(PeriphClkInit->I2c4ClockSelection);
 230              		.loc 1 286 5 view .LVU76
 231 0108 7D4A     		ldr	r2, .L87
 232 010a D2F89030 		ldr	r3, [r2, #144]
 233 010e 23F44003 		bic	r3, r3, #12582912
 234 0112 216F     		ldr	r1, [r4, #112]
 235 0114 0B43     		orrs	r3, r3, r1
 236 0116 C2F89030 		str	r3, [r2, #144]
 237              	.L21:
 287:Drivers/STM32F7xx_HAL_Driver/Src/stm32f7xx_hal_rcc_ex.c ****   }
 288:Drivers/STM32F7xx_HAL_Driver/Src/stm32f7xx_hal_rcc_ex.c **** 
 289:Drivers/STM32F7xx_HAL_Driver/Src/stm32f7xx_hal_rcc_ex.c ****   /*-------------------------------------- USART1 Configuration -----------------------------------
 290:Drivers/STM32F7xx_HAL_Driver/Src/stm32f7xx_hal_rcc_ex.c ****   if(((PeriphClkInit->PeriphClockSelection) & RCC_PERIPHCLK_USART1) == RCC_PERIPHCLK_USART1)
 238              		.loc 1 290 3 view .LVU77
 239              		.loc 1 290 21 is_stmt 0 view .LVU78
 240 011a 2368     		ldr	r3, [r4]
 241              		.loc 1 290 5 view .LVU79
 242 011c 13F0400F 		tst	r3, #64
 243 0120 08D0     		beq	.L22
 291:Drivers/STM32F7xx_HAL_Driver/Src/stm32f7xx_hal_rcc_ex.c ****   {
 292:Drivers/STM32F7xx_HAL_Driver/Src/stm32f7xx_hal_rcc_ex.c ****     /* Check the parameters */
 293:Drivers/STM32F7xx_HAL_Driver/Src/stm32f7xx_hal_rcc_ex.c ****     assert_param(IS_RCC_USART1CLKSOURCE(PeriphClkInit->Usart1ClockSelection));
 244              		.loc 1 293 5 is_stmt 1 view .LVU80
 294:Drivers/STM32F7xx_HAL_Driver/Src/stm32f7xx_hal_rcc_ex.c **** 
 295:Drivers/STM32F7xx_HAL_Driver/Src/stm32f7xx_hal_rcc_ex.c ****     /* Configure the USART1 clock source */
 296:Drivers/STM32F7xx_HAL_Driver/Src/stm32f7xx_hal_rcc_ex.c ****     __HAL_RCC_USART1_CONFIG(PeriphClkInit->Usart1ClockSelection);
 245              		.loc 1 296 5 view .LVU81
 246 0122 774A     		ldr	r2, .L87
 247 0124 D2F89030 		ldr	r3, [r2, #144]
 248 0128 23F00303 		bic	r3, r3, #3
 249 012c 616C     		ldr	r1, [r4, #68]
 250 012e 0B43     		orrs	r3, r3, r1
 251 0130 C2F89030 		str	r3, [r2, #144]
 252              	.L22:
 297:Drivers/STM32F7xx_HAL_Driver/Src/stm32f7xx_hal_rcc_ex.c ****   }
 298:Drivers/STM32F7xx_HAL_Driver/Src/stm32f7xx_hal_rcc_ex.c **** 
 299:Drivers/STM32F7xx_HAL_Driver/Src/stm32f7xx_hal_rcc_ex.c ****   /*-------------------------------------- USART2 Configuration -----------------------------------
 300:Drivers/STM32F7xx_HAL_Driver/Src/stm32f7xx_hal_rcc_ex.c ****   if(((PeriphClkInit->PeriphClockSelection) & RCC_PERIPHCLK_USART2) == RCC_PERIPHCLK_USART2)
 253              		.loc 1 300 3 view .LVU82
 254              		.loc 1 300 21 is_stmt 0 view .LVU83
 255 0134 2368     		ldr	r3, [r4]
 256              		.loc 1 300 5 view .LVU84
 257 0136 13F0800F 		tst	r3, #128
 258 013a 08D0     		beq	.L23
 301:Drivers/STM32F7xx_HAL_Driver/Src/stm32f7xx_hal_rcc_ex.c ****   {
 302:Drivers/STM32F7xx_HAL_Driver/Src/stm32f7xx_hal_rcc_ex.c ****     /* Check the parameters */
 303:Drivers/STM32F7xx_HAL_Driver/Src/stm32f7xx_hal_rcc_ex.c ****     assert_param(IS_RCC_USART2CLKSOURCE(PeriphClkInit->Usart2ClockSelection));
 259              		.loc 1 303 5 is_stmt 1 view .LVU85
 304:Drivers/STM32F7xx_HAL_Driver/Src/stm32f7xx_hal_rcc_ex.c **** 
 305:Drivers/STM32F7xx_HAL_Driver/Src/stm32f7xx_hal_rcc_ex.c ****     /* Configure the USART2 clock source */
 306:Drivers/STM32F7xx_HAL_Driver/Src/stm32f7xx_hal_rcc_ex.c ****     __HAL_RCC_USART2_CONFIG(PeriphClkInit->Usart2ClockSelection);
 260              		.loc 1 306 5 view .LVU86
 261 013c 704A     		ldr	r2, .L87
 262 013e D2F89030 		ldr	r3, [r2, #144]
 263 0142 23F00C03 		bic	r3, r3, #12
ARM GAS  /tmp/ccLEMPDN.s 			page 11


 264 0146 A16C     		ldr	r1, [r4, #72]
 265 0148 0B43     		orrs	r3, r3, r1
 266 014a C2F89030 		str	r3, [r2, #144]
 267              	.L23:
 307:Drivers/STM32F7xx_HAL_Driver/Src/stm32f7xx_hal_rcc_ex.c ****   }
 308:Drivers/STM32F7xx_HAL_Driver/Src/stm32f7xx_hal_rcc_ex.c **** 
 309:Drivers/STM32F7xx_HAL_Driver/Src/stm32f7xx_hal_rcc_ex.c ****   /*-------------------------------------- USART3 Configuration -----------------------------------
 310:Drivers/STM32F7xx_HAL_Driver/Src/stm32f7xx_hal_rcc_ex.c ****   if(((PeriphClkInit->PeriphClockSelection) & RCC_PERIPHCLK_USART3) == RCC_PERIPHCLK_USART3)
 268              		.loc 1 310 3 view .LVU87
 269              		.loc 1 310 21 is_stmt 0 view .LVU88
 270 014e 2368     		ldr	r3, [r4]
 271              		.loc 1 310 5 view .LVU89
 272 0150 13F4807F 		tst	r3, #256
 273 0154 08D0     		beq	.L24
 311:Drivers/STM32F7xx_HAL_Driver/Src/stm32f7xx_hal_rcc_ex.c ****   {
 312:Drivers/STM32F7xx_HAL_Driver/Src/stm32f7xx_hal_rcc_ex.c ****     /* Check the parameters */
 313:Drivers/STM32F7xx_HAL_Driver/Src/stm32f7xx_hal_rcc_ex.c ****     assert_param(IS_RCC_USART3CLKSOURCE(PeriphClkInit->Usart3ClockSelection));
 274              		.loc 1 313 5 is_stmt 1 view .LVU90
 314:Drivers/STM32F7xx_HAL_Driver/Src/stm32f7xx_hal_rcc_ex.c **** 
 315:Drivers/STM32F7xx_HAL_Driver/Src/stm32f7xx_hal_rcc_ex.c ****     /* Configure the USART3 clock source */
 316:Drivers/STM32F7xx_HAL_Driver/Src/stm32f7xx_hal_rcc_ex.c ****     __HAL_RCC_USART3_CONFIG(PeriphClkInit->Usart3ClockSelection);
 275              		.loc 1 316 5 view .LVU91
 276 0156 6A4A     		ldr	r2, .L87
 277 0158 D2F89030 		ldr	r3, [r2, #144]
 278 015c 23F03003 		bic	r3, r3, #48
 279 0160 E16C     		ldr	r1, [r4, #76]
 280 0162 0B43     		orrs	r3, r3, r1
 281 0164 C2F89030 		str	r3, [r2, #144]
 282              	.L24:
 317:Drivers/STM32F7xx_HAL_Driver/Src/stm32f7xx_hal_rcc_ex.c ****   }
 318:Drivers/STM32F7xx_HAL_Driver/Src/stm32f7xx_hal_rcc_ex.c **** 
 319:Drivers/STM32F7xx_HAL_Driver/Src/stm32f7xx_hal_rcc_ex.c ****   /*-------------------------------------- UART4 Configuration -----------------------------------*
 320:Drivers/STM32F7xx_HAL_Driver/Src/stm32f7xx_hal_rcc_ex.c ****   if(((PeriphClkInit->PeriphClockSelection) & RCC_PERIPHCLK_UART4) == RCC_PERIPHCLK_UART4)
 283              		.loc 1 320 3 view .LVU92
 284              		.loc 1 320 21 is_stmt 0 view .LVU93
 285 0168 2368     		ldr	r3, [r4]
 286              		.loc 1 320 5 view .LVU94
 287 016a 13F4007F 		tst	r3, #512
 288 016e 08D0     		beq	.L25
 321:Drivers/STM32F7xx_HAL_Driver/Src/stm32f7xx_hal_rcc_ex.c ****   {
 322:Drivers/STM32F7xx_HAL_Driver/Src/stm32f7xx_hal_rcc_ex.c ****     /* Check the parameters */
 323:Drivers/STM32F7xx_HAL_Driver/Src/stm32f7xx_hal_rcc_ex.c ****     assert_param(IS_RCC_UART4CLKSOURCE(PeriphClkInit->Uart4ClockSelection));
 289              		.loc 1 323 5 is_stmt 1 view .LVU95
 324:Drivers/STM32F7xx_HAL_Driver/Src/stm32f7xx_hal_rcc_ex.c **** 
 325:Drivers/STM32F7xx_HAL_Driver/Src/stm32f7xx_hal_rcc_ex.c ****     /* Configure the UART4 clock source */
 326:Drivers/STM32F7xx_HAL_Driver/Src/stm32f7xx_hal_rcc_ex.c ****     __HAL_RCC_UART4_CONFIG(PeriphClkInit->Uart4ClockSelection);
 290              		.loc 1 326 5 view .LVU96
 291 0170 634A     		ldr	r2, .L87
 292 0172 D2F89030 		ldr	r3, [r2, #144]
 293 0176 23F0C003 		bic	r3, r3, #192
 294 017a 216D     		ldr	r1, [r4, #80]
 295 017c 0B43     		orrs	r3, r3, r1
 296 017e C2F89030 		str	r3, [r2, #144]
 297              	.L25:
 327:Drivers/STM32F7xx_HAL_Driver/Src/stm32f7xx_hal_rcc_ex.c ****   }
 328:Drivers/STM32F7xx_HAL_Driver/Src/stm32f7xx_hal_rcc_ex.c **** 
 329:Drivers/STM32F7xx_HAL_Driver/Src/stm32f7xx_hal_rcc_ex.c ****   /*-------------------------------------- UART5 Configuration -----------------------------------*
ARM GAS  /tmp/ccLEMPDN.s 			page 12


 330:Drivers/STM32F7xx_HAL_Driver/Src/stm32f7xx_hal_rcc_ex.c ****   if(((PeriphClkInit->PeriphClockSelection) & RCC_PERIPHCLK_UART5) == RCC_PERIPHCLK_UART5)
 298              		.loc 1 330 3 view .LVU97
 299              		.loc 1 330 21 is_stmt 0 view .LVU98
 300 0182 2368     		ldr	r3, [r4]
 301              		.loc 1 330 5 view .LVU99
 302 0184 13F4806F 		tst	r3, #1024
 303 0188 08D0     		beq	.L26
 331:Drivers/STM32F7xx_HAL_Driver/Src/stm32f7xx_hal_rcc_ex.c ****   {
 332:Drivers/STM32F7xx_HAL_Driver/Src/stm32f7xx_hal_rcc_ex.c ****     /* Check the parameters */
 333:Drivers/STM32F7xx_HAL_Driver/Src/stm32f7xx_hal_rcc_ex.c ****     assert_param(IS_RCC_UART5CLKSOURCE(PeriphClkInit->Uart5ClockSelection));
 304              		.loc 1 333 5 is_stmt 1 view .LVU100
 334:Drivers/STM32F7xx_HAL_Driver/Src/stm32f7xx_hal_rcc_ex.c **** 
 335:Drivers/STM32F7xx_HAL_Driver/Src/stm32f7xx_hal_rcc_ex.c ****     /* Configure the UART5 clock source */
 336:Drivers/STM32F7xx_HAL_Driver/Src/stm32f7xx_hal_rcc_ex.c ****     __HAL_RCC_UART5_CONFIG(PeriphClkInit->Uart5ClockSelection);
 305              		.loc 1 336 5 view .LVU101
 306 018a 5D4A     		ldr	r2, .L87
 307 018c D2F89030 		ldr	r3, [r2, #144]
 308 0190 23F44073 		bic	r3, r3, #768
 309 0194 616D     		ldr	r1, [r4, #84]
 310 0196 0B43     		orrs	r3, r3, r1
 311 0198 C2F89030 		str	r3, [r2, #144]
 312              	.L26:
 337:Drivers/STM32F7xx_HAL_Driver/Src/stm32f7xx_hal_rcc_ex.c ****   }
 338:Drivers/STM32F7xx_HAL_Driver/Src/stm32f7xx_hal_rcc_ex.c **** 
 339:Drivers/STM32F7xx_HAL_Driver/Src/stm32f7xx_hal_rcc_ex.c ****   /*-------------------------------------- USART6 Configuration -----------------------------------
 340:Drivers/STM32F7xx_HAL_Driver/Src/stm32f7xx_hal_rcc_ex.c ****   if(((PeriphClkInit->PeriphClockSelection) & RCC_PERIPHCLK_USART6) == RCC_PERIPHCLK_USART6)
 313              		.loc 1 340 3 view .LVU102
 314              		.loc 1 340 21 is_stmt 0 view .LVU103
 315 019c 2368     		ldr	r3, [r4]
 316              		.loc 1 340 5 view .LVU104
 317 019e 13F4006F 		tst	r3, #2048
 318 01a2 08D0     		beq	.L27
 341:Drivers/STM32F7xx_HAL_Driver/Src/stm32f7xx_hal_rcc_ex.c ****   {
 342:Drivers/STM32F7xx_HAL_Driver/Src/stm32f7xx_hal_rcc_ex.c ****     /* Check the parameters */
 343:Drivers/STM32F7xx_HAL_Driver/Src/stm32f7xx_hal_rcc_ex.c ****     assert_param(IS_RCC_USART6CLKSOURCE(PeriphClkInit->Usart6ClockSelection));
 319              		.loc 1 343 5 is_stmt 1 view .LVU105
 344:Drivers/STM32F7xx_HAL_Driver/Src/stm32f7xx_hal_rcc_ex.c **** 
 345:Drivers/STM32F7xx_HAL_Driver/Src/stm32f7xx_hal_rcc_ex.c ****     /* Configure the USART6 clock source */
 346:Drivers/STM32F7xx_HAL_Driver/Src/stm32f7xx_hal_rcc_ex.c ****     __HAL_RCC_USART6_CONFIG(PeriphClkInit->Usart6ClockSelection);
 320              		.loc 1 346 5 view .LVU106
 321 01a4 564A     		ldr	r2, .L87
 322 01a6 D2F89030 		ldr	r3, [r2, #144]
 323 01aa 23F44063 		bic	r3, r3, #3072
 324 01ae A16D     		ldr	r1, [r4, #88]
 325 01b0 0B43     		orrs	r3, r3, r1
 326 01b2 C2F89030 		str	r3, [r2, #144]
 327              	.L27:
 347:Drivers/STM32F7xx_HAL_Driver/Src/stm32f7xx_hal_rcc_ex.c ****   }
 348:Drivers/STM32F7xx_HAL_Driver/Src/stm32f7xx_hal_rcc_ex.c **** 
 349:Drivers/STM32F7xx_HAL_Driver/Src/stm32f7xx_hal_rcc_ex.c ****   /*-------------------------------------- UART7 Configuration -----------------------------------*
 350:Drivers/STM32F7xx_HAL_Driver/Src/stm32f7xx_hal_rcc_ex.c ****   if(((PeriphClkInit->PeriphClockSelection) & RCC_PERIPHCLK_UART7) == RCC_PERIPHCLK_UART7)
 328              		.loc 1 350 3 view .LVU107
 329              		.loc 1 350 21 is_stmt 0 view .LVU108
 330 01b6 2368     		ldr	r3, [r4]
 331              		.loc 1 350 5 view .LVU109
 332 01b8 13F4805F 		tst	r3, #4096
 333 01bc 08D0     		beq	.L28
ARM GAS  /tmp/ccLEMPDN.s 			page 13


 351:Drivers/STM32F7xx_HAL_Driver/Src/stm32f7xx_hal_rcc_ex.c ****   {
 352:Drivers/STM32F7xx_HAL_Driver/Src/stm32f7xx_hal_rcc_ex.c ****     /* Check the parameters */
 353:Drivers/STM32F7xx_HAL_Driver/Src/stm32f7xx_hal_rcc_ex.c ****     assert_param(IS_RCC_UART7CLKSOURCE(PeriphClkInit->Uart7ClockSelection));
 334              		.loc 1 353 5 is_stmt 1 view .LVU110
 354:Drivers/STM32F7xx_HAL_Driver/Src/stm32f7xx_hal_rcc_ex.c **** 
 355:Drivers/STM32F7xx_HAL_Driver/Src/stm32f7xx_hal_rcc_ex.c ****     /* Configure the UART7 clock source */
 356:Drivers/STM32F7xx_HAL_Driver/Src/stm32f7xx_hal_rcc_ex.c ****     __HAL_RCC_UART7_CONFIG(PeriphClkInit->Uart7ClockSelection);
 335              		.loc 1 356 5 view .LVU111
 336 01be 504A     		ldr	r2, .L87
 337 01c0 D2F89030 		ldr	r3, [r2, #144]
 338 01c4 23F44053 		bic	r3, r3, #12288
 339 01c8 E16D     		ldr	r1, [r4, #92]
 340 01ca 0B43     		orrs	r3, r3, r1
 341 01cc C2F89030 		str	r3, [r2, #144]
 342              	.L28:
 357:Drivers/STM32F7xx_HAL_Driver/Src/stm32f7xx_hal_rcc_ex.c ****   }
 358:Drivers/STM32F7xx_HAL_Driver/Src/stm32f7xx_hal_rcc_ex.c **** 
 359:Drivers/STM32F7xx_HAL_Driver/Src/stm32f7xx_hal_rcc_ex.c ****   /*-------------------------------------- UART8 Configuration -----------------------------------*
 360:Drivers/STM32F7xx_HAL_Driver/Src/stm32f7xx_hal_rcc_ex.c ****   if(((PeriphClkInit->PeriphClockSelection) & RCC_PERIPHCLK_UART8) == RCC_PERIPHCLK_UART8)
 343              		.loc 1 360 3 view .LVU112
 344              		.loc 1 360 21 is_stmt 0 view .LVU113
 345 01d0 2368     		ldr	r3, [r4]
 346              		.loc 1 360 5 view .LVU114
 347 01d2 13F4005F 		tst	r3, #8192
 348 01d6 08D0     		beq	.L29
 361:Drivers/STM32F7xx_HAL_Driver/Src/stm32f7xx_hal_rcc_ex.c ****   {
 362:Drivers/STM32F7xx_HAL_Driver/Src/stm32f7xx_hal_rcc_ex.c ****     /* Check the parameters */
 363:Drivers/STM32F7xx_HAL_Driver/Src/stm32f7xx_hal_rcc_ex.c ****     assert_param(IS_RCC_UART8CLKSOURCE(PeriphClkInit->Uart8ClockSelection));
 349              		.loc 1 363 5 is_stmt 1 view .LVU115
 364:Drivers/STM32F7xx_HAL_Driver/Src/stm32f7xx_hal_rcc_ex.c **** 
 365:Drivers/STM32F7xx_HAL_Driver/Src/stm32f7xx_hal_rcc_ex.c ****     /* Configure the UART8 clock source */
 366:Drivers/STM32F7xx_HAL_Driver/Src/stm32f7xx_hal_rcc_ex.c ****     __HAL_RCC_UART8_CONFIG(PeriphClkInit->Uart8ClockSelection);
 350              		.loc 1 366 5 view .LVU116
 351 01d8 494A     		ldr	r2, .L87
 352 01da D2F89030 		ldr	r3, [r2, #144]
 353 01de 23F44043 		bic	r3, r3, #49152
 354 01e2 216E     		ldr	r1, [r4, #96]
 355 01e4 0B43     		orrs	r3, r3, r1
 356 01e6 C2F89030 		str	r3, [r2, #144]
 357              	.L29:
 367:Drivers/STM32F7xx_HAL_Driver/Src/stm32f7xx_hal_rcc_ex.c ****   }
 368:Drivers/STM32F7xx_HAL_Driver/Src/stm32f7xx_hal_rcc_ex.c **** 
 369:Drivers/STM32F7xx_HAL_Driver/Src/stm32f7xx_hal_rcc_ex.c ****   /*--------------------------------------- CEC Configuration -----------------------------------*/
 370:Drivers/STM32F7xx_HAL_Driver/Src/stm32f7xx_hal_rcc_ex.c ****   if(((PeriphClkInit->PeriphClockSelection) & RCC_PERIPHCLK_CEC) == RCC_PERIPHCLK_CEC)
 358              		.loc 1 370 3 view .LVU117
 359              		.loc 1 370 21 is_stmt 0 view .LVU118
 360 01ea 2368     		ldr	r3, [r4]
 361              		.loc 1 370 5 view .LVU119
 362 01ec 13F4800F 		tst	r3, #4194304
 363 01f0 08D0     		beq	.L30
 371:Drivers/STM32F7xx_HAL_Driver/Src/stm32f7xx_hal_rcc_ex.c ****   {
 372:Drivers/STM32F7xx_HAL_Driver/Src/stm32f7xx_hal_rcc_ex.c ****     /* Check the parameters */
 373:Drivers/STM32F7xx_HAL_Driver/Src/stm32f7xx_hal_rcc_ex.c ****     assert_param(IS_RCC_CECCLKSOURCE(PeriphClkInit->CecClockSelection));
 364              		.loc 1 373 5 is_stmt 1 view .LVU120
 374:Drivers/STM32F7xx_HAL_Driver/Src/stm32f7xx_hal_rcc_ex.c **** 
 375:Drivers/STM32F7xx_HAL_Driver/Src/stm32f7xx_hal_rcc_ex.c ****     /* Configure the CEC clock source */
 376:Drivers/STM32F7xx_HAL_Driver/Src/stm32f7xx_hal_rcc_ex.c ****     __HAL_RCC_CEC_CONFIG(PeriphClkInit->CecClockSelection);
ARM GAS  /tmp/ccLEMPDN.s 			page 14


 365              		.loc 1 376 5 view .LVU121
 366 01f2 434A     		ldr	r2, .L87
 367 01f4 D2F89030 		ldr	r3, [r2, #144]
 368 01f8 23F08063 		bic	r3, r3, #67108864
 369 01fc A16F     		ldr	r1, [r4, #120]
 370 01fe 0B43     		orrs	r3, r3, r1
 371 0200 C2F89030 		str	r3, [r2, #144]
 372              	.L30:
 377:Drivers/STM32F7xx_HAL_Driver/Src/stm32f7xx_hal_rcc_ex.c ****   }
 378:Drivers/STM32F7xx_HAL_Driver/Src/stm32f7xx_hal_rcc_ex.c **** 
 379:Drivers/STM32F7xx_HAL_Driver/Src/stm32f7xx_hal_rcc_ex.c ****   /*-------------------------------------- CK48 Configuration -----------------------------------*/
 380:Drivers/STM32F7xx_HAL_Driver/Src/stm32f7xx_hal_rcc_ex.c ****   if(((PeriphClkInit->PeriphClockSelection) & RCC_PERIPHCLK_CLK48) == RCC_PERIPHCLK_CLK48)
 373              		.loc 1 380 3 view .LVU122
 374              		.loc 1 380 21 is_stmt 0 view .LVU123
 375 0204 2368     		ldr	r3, [r4]
 376              		.loc 1 380 5 view .LVU124
 377 0206 13F4001F 		tst	r3, #2097152
 378 020a 0DD0     		beq	.L31
 381:Drivers/STM32F7xx_HAL_Driver/Src/stm32f7xx_hal_rcc_ex.c ****   {
 382:Drivers/STM32F7xx_HAL_Driver/Src/stm32f7xx_hal_rcc_ex.c ****     /* Check the parameters */
 383:Drivers/STM32F7xx_HAL_Driver/Src/stm32f7xx_hal_rcc_ex.c ****     assert_param(IS_RCC_CLK48SOURCE(PeriphClkInit->Clk48ClockSelection));
 379              		.loc 1 383 5 is_stmt 1 view .LVU125
 384:Drivers/STM32F7xx_HAL_Driver/Src/stm32f7xx_hal_rcc_ex.c **** 
 385:Drivers/STM32F7xx_HAL_Driver/Src/stm32f7xx_hal_rcc_ex.c ****     /* Configure the CLK48 source */
 386:Drivers/STM32F7xx_HAL_Driver/Src/stm32f7xx_hal_rcc_ex.c ****     __HAL_RCC_CLK48_CONFIG(PeriphClkInit->Clk48ClockSelection);
 380              		.loc 1 386 5 view .LVU126
 381 020c 3C4A     		ldr	r2, .L87
 382 020e D2F89030 		ldr	r3, [r2, #144]
 383 0212 23F00063 		bic	r3, r3, #134217728
 384 0216 E16F     		ldr	r1, [r4, #124]
 385 0218 0B43     		orrs	r3, r3, r1
 386 021a C2F89030 		str	r3, [r2, #144]
 387:Drivers/STM32F7xx_HAL_Driver/Src/stm32f7xx_hal_rcc_ex.c **** 
 388:Drivers/STM32F7xx_HAL_Driver/Src/stm32f7xx_hal_rcc_ex.c ****     /* Enable the PLLSAI when it's used as clock source for CK48 */
 389:Drivers/STM32F7xx_HAL_Driver/Src/stm32f7xx_hal_rcc_ex.c ****     if(PeriphClkInit->Clk48ClockSelection == RCC_CLK48SOURCE_PLLSAIP)
 387              		.loc 1 389 5 view .LVU127
 388              		.loc 1 389 21 is_stmt 0 view .LVU128
 389 021e E36F     		ldr	r3, [r4, #124]
 390              		.loc 1 389 7 view .LVU129
 391 0220 B3F1006F 		cmp	r3, #134217728
 392 0224 00F0D480 		beq	.L78
 393              	.LVL9:
 394              	.L31:
 390:Drivers/STM32F7xx_HAL_Driver/Src/stm32f7xx_hal_rcc_ex.c ****     {
 391:Drivers/STM32F7xx_HAL_Driver/Src/stm32f7xx_hal_rcc_ex.c ****       pllsaiused = 1;
 392:Drivers/STM32F7xx_HAL_Driver/Src/stm32f7xx_hal_rcc_ex.c ****     }
 393:Drivers/STM32F7xx_HAL_Driver/Src/stm32f7xx_hal_rcc_ex.c ****   }
 394:Drivers/STM32F7xx_HAL_Driver/Src/stm32f7xx_hal_rcc_ex.c **** 
 395:Drivers/STM32F7xx_HAL_Driver/Src/stm32f7xx_hal_rcc_ex.c ****   /*-------------------------------------- LTDC Configuration -----------------------------------*/
 396:Drivers/STM32F7xx_HAL_Driver/Src/stm32f7xx_hal_rcc_ex.c **** #if defined(STM32F746xx) || defined(STM32F756xx) || defined (STM32F767xx) || defined (STM32F769xx) 
 397:Drivers/STM32F7xx_HAL_Driver/Src/stm32f7xx_hal_rcc_ex.c ****   if(((PeriphClkInit->PeriphClockSelection) & RCC_PERIPHCLK_LTDC) == RCC_PERIPHCLK_LTDC)
 395              		.loc 1 397 3 is_stmt 1 view .LVU130
 396              		.loc 1 397 21 is_stmt 0 view .LVU131
 397 0228 2368     		ldr	r3, [r4]
 398              		.loc 1 397 5 view .LVU132
 399 022a 13F0080F 		tst	r3, #8
 400 022e 00D0     		beq	.L32
ARM GAS  /tmp/ccLEMPDN.s 			page 15


 398:Drivers/STM32F7xx_HAL_Driver/Src/stm32f7xx_hal_rcc_ex.c ****   {
 399:Drivers/STM32F7xx_HAL_Driver/Src/stm32f7xx_hal_rcc_ex.c ****     pllsaiused = 1;
 401              		.loc 1 399 16 view .LVU133
 402 0230 0125     		movs	r5, #1
 403              	.LVL10:
 404              	.L32:
 400:Drivers/STM32F7xx_HAL_Driver/Src/stm32f7xx_hal_rcc_ex.c ****   }
 401:Drivers/STM32F7xx_HAL_Driver/Src/stm32f7xx_hal_rcc_ex.c **** #endif /* STM32F746xx || STM32F756xx || STM32F767xx || STM32F769xx || STM32F777xx || STM32F779xx ||
 402:Drivers/STM32F7xx_HAL_Driver/Src/stm32f7xx_hal_rcc_ex.c **** 
 403:Drivers/STM32F7xx_HAL_Driver/Src/stm32f7xx_hal_rcc_ex.c ****   /*-------------------------------------- LPTIM1 Configuration -----------------------------------
 404:Drivers/STM32F7xx_HAL_Driver/Src/stm32f7xx_hal_rcc_ex.c ****   if(((PeriphClkInit->PeriphClockSelection) & RCC_PERIPHCLK_LPTIM1) == RCC_PERIPHCLK_LPTIM1)
 405              		.loc 1 404 3 is_stmt 1 view .LVU134
 406              		.loc 1 404 5 is_stmt 0 view .LVU135
 407 0232 13F4802F 		tst	r3, #262144
 408 0236 08D0     		beq	.L33
 405:Drivers/STM32F7xx_HAL_Driver/Src/stm32f7xx_hal_rcc_ex.c ****   {
 406:Drivers/STM32F7xx_HAL_Driver/Src/stm32f7xx_hal_rcc_ex.c ****     /* Check the parameters */
 407:Drivers/STM32F7xx_HAL_Driver/Src/stm32f7xx_hal_rcc_ex.c ****     assert_param(IS_RCC_LPTIM1CLK(PeriphClkInit->Lptim1ClockSelection));
 409              		.loc 1 407 5 is_stmt 1 view .LVU136
 408:Drivers/STM32F7xx_HAL_Driver/Src/stm32f7xx_hal_rcc_ex.c **** 
 409:Drivers/STM32F7xx_HAL_Driver/Src/stm32f7xx_hal_rcc_ex.c ****     /* Configure the LTPIM1 clock source */
 410:Drivers/STM32F7xx_HAL_Driver/Src/stm32f7xx_hal_rcc_ex.c ****     __HAL_RCC_LPTIM1_CONFIG(PeriphClkInit->Lptim1ClockSelection);
 410              		.loc 1 410 5 view .LVU137
 411 0238 314A     		ldr	r2, .L87
 412 023a D2F89030 		ldr	r3, [r2, #144]
 413 023e 23F04073 		bic	r3, r3, #50331648
 414 0242 616F     		ldr	r1, [r4, #116]
 415 0244 0B43     		orrs	r3, r3, r1
 416 0246 C2F89030 		str	r3, [r2, #144]
 417              	.L33:
 411:Drivers/STM32F7xx_HAL_Driver/Src/stm32f7xx_hal_rcc_ex.c ****    }
 412:Drivers/STM32F7xx_HAL_Driver/Src/stm32f7xx_hal_rcc_ex.c **** 
 413:Drivers/STM32F7xx_HAL_Driver/Src/stm32f7xx_hal_rcc_ex.c ****   /*------------------------------------- SDMMC1 Configuration ------------------------------------
 414:Drivers/STM32F7xx_HAL_Driver/Src/stm32f7xx_hal_rcc_ex.c ****   if(((PeriphClkInit->PeriphClockSelection) & RCC_PERIPHCLK_SDMMC1) == RCC_PERIPHCLK_SDMMC1)
 418              		.loc 1 414 3 view .LVU138
 419              		.loc 1 414 21 is_stmt 0 view .LVU139
 420 024a 2368     		ldr	r3, [r4]
 421              		.loc 1 414 5 view .LVU140
 422 024c 13F4000F 		tst	r3, #8388608
 423 0250 09D0     		beq	.L34
 415:Drivers/STM32F7xx_HAL_Driver/Src/stm32f7xx_hal_rcc_ex.c ****   {
 416:Drivers/STM32F7xx_HAL_Driver/Src/stm32f7xx_hal_rcc_ex.c ****     /* Check the parameters */
 417:Drivers/STM32F7xx_HAL_Driver/Src/stm32f7xx_hal_rcc_ex.c ****     assert_param(IS_RCC_SDMMC1CLKSOURCE(PeriphClkInit->Sdmmc1ClockSelection));
 424              		.loc 1 417 5 is_stmt 1 view .LVU141
 418:Drivers/STM32F7xx_HAL_Driver/Src/stm32f7xx_hal_rcc_ex.c **** 
 419:Drivers/STM32F7xx_HAL_Driver/Src/stm32f7xx_hal_rcc_ex.c ****     /* Configure the SDMMC1 clock source */
 420:Drivers/STM32F7xx_HAL_Driver/Src/stm32f7xx_hal_rcc_ex.c ****     __HAL_RCC_SDMMC1_CONFIG(PeriphClkInit->Sdmmc1ClockSelection);
 425              		.loc 1 420 5 view .LVU142
 426 0252 2B4A     		ldr	r2, .L87
 427 0254 D2F89030 		ldr	r3, [r2, #144]
 428 0258 23F08053 		bic	r3, r3, #268435456
 429 025c D4F88010 		ldr	r1, [r4, #128]
 430 0260 0B43     		orrs	r3, r3, r1
 431 0262 C2F89030 		str	r3, [r2, #144]
 432              	.L34:
 421:Drivers/STM32F7xx_HAL_Driver/Src/stm32f7xx_hal_rcc_ex.c ****   }
 422:Drivers/STM32F7xx_HAL_Driver/Src/stm32f7xx_hal_rcc_ex.c **** 
ARM GAS  /tmp/ccLEMPDN.s 			page 16


 423:Drivers/STM32F7xx_HAL_Driver/Src/stm32f7xx_hal_rcc_ex.c **** #if defined (STM32F765xx) || defined (STM32F767xx) || defined (STM32F769xx) || defined (STM32F777xx
 424:Drivers/STM32F7xx_HAL_Driver/Src/stm32f7xx_hal_rcc_ex.c ****   /*------------------------------------- SDMMC2 Configuration ------------------------------------
 425:Drivers/STM32F7xx_HAL_Driver/Src/stm32f7xx_hal_rcc_ex.c ****   if(((PeriphClkInit->PeriphClockSelection) & RCC_PERIPHCLK_SDMMC2) == RCC_PERIPHCLK_SDMMC2)
 433              		.loc 1 425 3 view .LVU143
 434              		.loc 1 425 21 is_stmt 0 view .LVU144
 435 0266 2368     		ldr	r3, [r4]
 436              		.loc 1 425 5 view .LVU145
 437 0268 13F0806F 		tst	r3, #67108864
 438 026c 09D0     		beq	.L35
 426:Drivers/STM32F7xx_HAL_Driver/Src/stm32f7xx_hal_rcc_ex.c ****   {
 427:Drivers/STM32F7xx_HAL_Driver/Src/stm32f7xx_hal_rcc_ex.c ****     /* Check the parameters */
 428:Drivers/STM32F7xx_HAL_Driver/Src/stm32f7xx_hal_rcc_ex.c ****     assert_param(IS_RCC_SDMMC2CLKSOURCE(PeriphClkInit->Sdmmc2ClockSelection));
 439              		.loc 1 428 5 is_stmt 1 view .LVU146
 429:Drivers/STM32F7xx_HAL_Driver/Src/stm32f7xx_hal_rcc_ex.c **** 
 430:Drivers/STM32F7xx_HAL_Driver/Src/stm32f7xx_hal_rcc_ex.c ****     /* Configure the SDMMC2 clock source */
 431:Drivers/STM32F7xx_HAL_Driver/Src/stm32f7xx_hal_rcc_ex.c ****     __HAL_RCC_SDMMC2_CONFIG(PeriphClkInit->Sdmmc2ClockSelection);
 440              		.loc 1 431 5 view .LVU147
 441 026e 244A     		ldr	r2, .L87
 442 0270 D2F89030 		ldr	r3, [r2, #144]
 443 0274 23F00053 		bic	r3, r3, #536870912
 444 0278 D4F88410 		ldr	r1, [r4, #132]
 445 027c 0B43     		orrs	r3, r3, r1
 446 027e C2F89030 		str	r3, [r2, #144]
 447              	.L35:
 432:Drivers/STM32F7xx_HAL_Driver/Src/stm32f7xx_hal_rcc_ex.c ****   }
 433:Drivers/STM32F7xx_HAL_Driver/Src/stm32f7xx_hal_rcc_ex.c **** 
 434:Drivers/STM32F7xx_HAL_Driver/Src/stm32f7xx_hal_rcc_ex.c ****   /*------------------------------------- DFSDM1 Configuration ------------------------------------
 435:Drivers/STM32F7xx_HAL_Driver/Src/stm32f7xx_hal_rcc_ex.c ****   if(((PeriphClkInit->PeriphClockSelection) & RCC_PERIPHCLK_DFSDM1) == RCC_PERIPHCLK_DFSDM1)
 448              		.loc 1 435 3 view .LVU148
 449              		.loc 1 435 21 is_stmt 0 view .LVU149
 450 0282 2368     		ldr	r3, [r4]
 451              		.loc 1 435 5 view .LVU150
 452 0284 13F0006F 		tst	r3, #134217728
 453 0288 09D0     		beq	.L36
 436:Drivers/STM32F7xx_HAL_Driver/Src/stm32f7xx_hal_rcc_ex.c ****   {
 437:Drivers/STM32F7xx_HAL_Driver/Src/stm32f7xx_hal_rcc_ex.c ****     /* Check the parameters */
 438:Drivers/STM32F7xx_HAL_Driver/Src/stm32f7xx_hal_rcc_ex.c ****     assert_param(IS_RCC_DFSDM1CLKSOURCE(PeriphClkInit->Dfsdm1ClockSelection));
 454              		.loc 1 438 5 is_stmt 1 view .LVU151
 439:Drivers/STM32F7xx_HAL_Driver/Src/stm32f7xx_hal_rcc_ex.c **** 
 440:Drivers/STM32F7xx_HAL_Driver/Src/stm32f7xx_hal_rcc_ex.c ****     /* Configure the DFSDM1 interface clock source */
 441:Drivers/STM32F7xx_HAL_Driver/Src/stm32f7xx_hal_rcc_ex.c ****     __HAL_RCC_DFSDM1_CONFIG(PeriphClkInit->Dfsdm1ClockSelection);
 455              		.loc 1 441 5 view .LVU152
 456 028a 1D4A     		ldr	r2, .L87
 457 028c D2F88C30 		ldr	r3, [r2, #140]
 458 0290 23F00073 		bic	r3, r3, #33554432
 459 0294 D4F88810 		ldr	r1, [r4, #136]
 460 0298 0B43     		orrs	r3, r3, r1
 461 029a C2F88C30 		str	r3, [r2, #140]
 462              	.L36:
 442:Drivers/STM32F7xx_HAL_Driver/Src/stm32f7xx_hal_rcc_ex.c ****   }
 443:Drivers/STM32F7xx_HAL_Driver/Src/stm32f7xx_hal_rcc_ex.c **** 
 444:Drivers/STM32F7xx_HAL_Driver/Src/stm32f7xx_hal_rcc_ex.c ****   /*------------------------------------- DFSDM AUDIO Configuration -------------------------------
 445:Drivers/STM32F7xx_HAL_Driver/Src/stm32f7xx_hal_rcc_ex.c ****   if(((PeriphClkInit->PeriphClockSelection) & RCC_PERIPHCLK_DFSDM1_AUDIO) == RCC_PERIPHCLK_DFSDM1_A
 463              		.loc 1 445 3 view .LVU153
 464              		.loc 1 445 21 is_stmt 0 view .LVU154
 465 029e 2368     		ldr	r3, [r4]
 466              		.loc 1 445 5 view .LVU155
ARM GAS  /tmp/ccLEMPDN.s 			page 17


 467 02a0 13F0805F 		tst	r3, #268435456
 468 02a4 09D0     		beq	.L37
 446:Drivers/STM32F7xx_HAL_Driver/Src/stm32f7xx_hal_rcc_ex.c ****   {
 447:Drivers/STM32F7xx_HAL_Driver/Src/stm32f7xx_hal_rcc_ex.c ****     /* Check the parameters */
 448:Drivers/STM32F7xx_HAL_Driver/Src/stm32f7xx_hal_rcc_ex.c ****     assert_param(IS_RCC_DFSDM1AUDIOCLKSOURCE(PeriphClkInit->Dfsdm1AudioClockSelection));
 469              		.loc 1 448 5 is_stmt 1 view .LVU156
 449:Drivers/STM32F7xx_HAL_Driver/Src/stm32f7xx_hal_rcc_ex.c **** 
 450:Drivers/STM32F7xx_HAL_Driver/Src/stm32f7xx_hal_rcc_ex.c ****     /* Configure the DFSDM interface clock source */
 451:Drivers/STM32F7xx_HAL_Driver/Src/stm32f7xx_hal_rcc_ex.c ****     __HAL_RCC_DFSDM1AUDIO_CONFIG(PeriphClkInit->Dfsdm1AudioClockSelection);
 470              		.loc 1 451 5 view .LVU157
 471 02a6 164A     		ldr	r2, .L87
 472 02a8 D2F88C30 		ldr	r3, [r2, #140]
 473 02ac 23F08063 		bic	r3, r3, #67108864
 474 02b0 D4F88C10 		ldr	r1, [r4, #140]
 475 02b4 0B43     		orrs	r3, r3, r1
 476 02b6 C2F88C30 		str	r3, [r2, #140]
 477              	.L37:
 452:Drivers/STM32F7xx_HAL_Driver/Src/stm32f7xx_hal_rcc_ex.c ****   }
 453:Drivers/STM32F7xx_HAL_Driver/Src/stm32f7xx_hal_rcc_ex.c **** #endif /* STM32F767xx || STM32F769xx || STM32F777xx || STM32F779xx */
 454:Drivers/STM32F7xx_HAL_Driver/Src/stm32f7xx_hal_rcc_ex.c **** 
 455:Drivers/STM32F7xx_HAL_Driver/Src/stm32f7xx_hal_rcc_ex.c ****   /*-------------------------------------- PLLI2S Configuration ---------------------------------*/
 456:Drivers/STM32F7xx_HAL_Driver/Src/stm32f7xx_hal_rcc_ex.c ****   /* PLLI2S is configured when a peripheral will use it as source clock : SAI1, SAI2, I2S or SPDIF-
 457:Drivers/STM32F7xx_HAL_Driver/Src/stm32f7xx_hal_rcc_ex.c ****   if((plli2sused == 1) || ((PeriphClkInit->PeriphClockSelection & RCC_PERIPHCLK_PLLI2S) == RCC_PERI
 478              		.loc 1 457 3 view .LVU158
 479              		.loc 1 457 5 is_stmt 0 view .LVU159
 480 02ba 26B9     		cbnz	r6, .L38
 481              		.loc 1 457 42 discriminator 1 view .LVU160
 482 02bc 2368     		ldr	r3, [r4]
 483              		.loc 1 457 24 discriminator 1 view .LVU161
 484 02be 13F0007F 		tst	r3, #33554432
 485 02c2 00F00581 		beq	.L39
 486              	.L38:
 458:Drivers/STM32F7xx_HAL_Driver/Src/stm32f7xx_hal_rcc_ex.c ****   {
 459:Drivers/STM32F7xx_HAL_Driver/Src/stm32f7xx_hal_rcc_ex.c ****     /* Disable the PLLI2S */
 460:Drivers/STM32F7xx_HAL_Driver/Src/stm32f7xx_hal_rcc_ex.c ****     __HAL_RCC_PLLI2S_DISABLE();
 487              		.loc 1 460 5 is_stmt 1 view .LVU162
 488 02c6 0E4A     		ldr	r2, .L87
 489 02c8 1368     		ldr	r3, [r2]
 490 02ca 23F08063 		bic	r3, r3, #67108864
 491 02ce 1360     		str	r3, [r2]
 461:Drivers/STM32F7xx_HAL_Driver/Src/stm32f7xx_hal_rcc_ex.c **** 
 462:Drivers/STM32F7xx_HAL_Driver/Src/stm32f7xx_hal_rcc_ex.c ****     /* Get Start Tick*/
 463:Drivers/STM32F7xx_HAL_Driver/Src/stm32f7xx_hal_rcc_ex.c ****     tickstart = HAL_GetTick();
 492              		.loc 1 463 5 view .LVU163
 493              		.loc 1 463 17 is_stmt 0 view .LVU164
 494 02d0 FFF7FEFF 		bl	HAL_GetTick
 495              	.LVL11:
 496 02d4 0646     		mov	r6, r0
 497              	.LVL12:
 464:Drivers/STM32F7xx_HAL_Driver/Src/stm32f7xx_hal_rcc_ex.c **** 
 465:Drivers/STM32F7xx_HAL_Driver/Src/stm32f7xx_hal_rcc_ex.c ****     /* Wait till PLLI2S is disabled */
 466:Drivers/STM32F7xx_HAL_Driver/Src/stm32f7xx_hal_rcc_ex.c ****     while(__HAL_RCC_GET_FLAG(RCC_FLAG_PLLI2SRDY)  != RESET)
 498              		.loc 1 466 5 is_stmt 1 view .LVU165
 499              	.L40:
 500              		.loc 1 466 10 view .LVU166
 501              		.loc 1 466 11 is_stmt 0 view .LVU167
 502 02d6 0A4B     		ldr	r3, .L87
ARM GAS  /tmp/ccLEMPDN.s 			page 18


 503 02d8 1B68     		ldr	r3, [r3]
 504              		.loc 1 466 10 view .LVU168
 505 02da 13F0006F 		tst	r3, #134217728
 506 02de 79D0     		beq	.L79
 467:Drivers/STM32F7xx_HAL_Driver/Src/stm32f7xx_hal_rcc_ex.c ****     {
 468:Drivers/STM32F7xx_HAL_Driver/Src/stm32f7xx_hal_rcc_ex.c ****       if((HAL_GetTick() - tickstart) > PLLI2S_TIMEOUT_VALUE)
 507              		.loc 1 468 7 is_stmt 1 view .LVU169
 508              		.loc 1 468 11 is_stmt 0 view .LVU170
 509 02e0 FFF7FEFF 		bl	HAL_GetTick
 510              	.LVL13:
 511              		.loc 1 468 25 view .LVU171
 512 02e4 801B     		subs	r0, r0, r6
 513              		.loc 1 468 9 view .LVU172
 514 02e6 6428     		cmp	r0, #100
 515 02e8 F5D9     		bls	.L40
 469:Drivers/STM32F7xx_HAL_Driver/Src/stm32f7xx_hal_rcc_ex.c ****       {
 470:Drivers/STM32F7xx_HAL_Driver/Src/stm32f7xx_hal_rcc_ex.c ****         /* return in case of Timeout detected */
 471:Drivers/STM32F7xx_HAL_Driver/Src/stm32f7xx_hal_rcc_ex.c ****         return HAL_TIMEOUT;
 516              		.loc 1 471 16 view .LVU173
 517 02ea 0320     		movs	r0, #3
 518 02ec F3E0     		b	.L10
 519              	.LVL14:
 520              	.L59:
 130:Drivers/STM32F7xx_HAL_Driver/Src/stm32f7xx_hal_rcc_ex.c ****     }
 521              		.loc 1 130 18 view .LVU174
 522 02ee 0126     		movs	r6, #1
 523 02f0 9BE6     		b	.L2
 524              	.LVL15:
 525              	.L75:
 145:Drivers/STM32F7xx_HAL_Driver/Src/stm32f7xx_hal_rcc_ex.c ****     }
 526              		.loc 1 145 18 view .LVU175
 527 02f2 0126     		movs	r6, #1
 528              	.LVL16:
 145:Drivers/STM32F7xx_HAL_Driver/Src/stm32f7xx_hal_rcc_ex.c ****     }
 529              		.loc 1 145 18 view .LVU176
 530 02f4 ABE6     		b	.L4
 531              	.LVL17:
 532              	.L61:
 150:Drivers/STM32F7xx_HAL_Driver/Src/stm32f7xx_hal_rcc_ex.c ****     }
 533              		.loc 1 150 18 view .LVU177
 534 02f6 0125     		movs	r5, #1
 535 02f8 ADE6     		b	.L3
 536              	.LVL18:
 537              	.L76:
 166:Drivers/STM32F7xx_HAL_Driver/Src/stm32f7xx_hal_rcc_ex.c ****     }
 538              		.loc 1 166 18 view .LVU178
 539 02fa 0126     		movs	r6, #1
 540              	.LVL19:
 166:Drivers/STM32F7xx_HAL_Driver/Src/stm32f7xx_hal_rcc_ex.c ****     }
 541              		.loc 1 166 18 view .LVU179
 542 02fc BDE6     		b	.L6
 543              	.L88:
 544 02fe 00BF     		.align	2
 545              	.L87:
 546 0300 00380240 		.word	1073887232
 547              	.LVL20:
 548              	.L77:
ARM GAS  /tmp/ccLEMPDN.s 			page 19


 185:Drivers/STM32F7xx_HAL_Driver/Src/stm32f7xx_hal_rcc_ex.c **** 
 549              		.loc 1 185 5 is_stmt 1 view .LVU180
 188:Drivers/STM32F7xx_HAL_Driver/Src/stm32f7xx_hal_rcc_ex.c **** 
 550              		.loc 1 188 5 view .LVU181
 551              	.LBB2:
 188:Drivers/STM32F7xx_HAL_Driver/Src/stm32f7xx_hal_rcc_ex.c **** 
 552              		.loc 1 188 5 view .LVU182
 188:Drivers/STM32F7xx_HAL_Driver/Src/stm32f7xx_hal_rcc_ex.c **** 
 553              		.loc 1 188 5 view .LVU183
 554 0304 B94B     		ldr	r3, .L89
 555 0306 1A6C     		ldr	r2, [r3, #64]
 556 0308 42F08052 		orr	r2, r2, #268435456
 557 030c 1A64     		str	r2, [r3, #64]
 188:Drivers/STM32F7xx_HAL_Driver/Src/stm32f7xx_hal_rcc_ex.c **** 
 558              		.loc 1 188 5 view .LVU184
 559 030e 1B6C     		ldr	r3, [r3, #64]
 560 0310 03F08053 		and	r3, r3, #268435456
 561 0314 0193     		str	r3, [sp, #4]
 188:Drivers/STM32F7xx_HAL_Driver/Src/stm32f7xx_hal_rcc_ex.c **** 
 562              		.loc 1 188 5 view .LVU185
 563 0316 019B     		ldr	r3, [sp, #4]
 564              	.LBE2:
 188:Drivers/STM32F7xx_HAL_Driver/Src/stm32f7xx_hal_rcc_ex.c **** 
 565              		.loc 1 188 5 view .LVU186
 191:Drivers/STM32F7xx_HAL_Driver/Src/stm32f7xx_hal_rcc_ex.c **** 
 566              		.loc 1 191 5 view .LVU187
 191:Drivers/STM32F7xx_HAL_Driver/Src/stm32f7xx_hal_rcc_ex.c **** 
 567              		.loc 1 191 14 is_stmt 0 view .LVU188
 568 0318 B54A     		ldr	r2, .L89+4
 569 031a 1368     		ldr	r3, [r2]
 570 031c 43F48073 		orr	r3, r3, #256
 571 0320 1360     		str	r3, [r2]
 194:Drivers/STM32F7xx_HAL_Driver/Src/stm32f7xx_hal_rcc_ex.c **** 
 572              		.loc 1 194 5 is_stmt 1 view .LVU189
 194:Drivers/STM32F7xx_HAL_Driver/Src/stm32f7xx_hal_rcc_ex.c **** 
 573              		.loc 1 194 17 is_stmt 0 view .LVU190
 574 0322 FFF7FEFF 		bl	HAL_GetTick
 575              	.LVL21:
 194:Drivers/STM32F7xx_HAL_Driver/Src/stm32f7xx_hal_rcc_ex.c **** 
 576              		.loc 1 194 17 view .LVU191
 577 0326 0746     		mov	r7, r0
 578              	.LVL22:
 197:Drivers/STM32F7xx_HAL_Driver/Src/stm32f7xx_hal_rcc_ex.c ****     {
 579              		.loc 1 197 5 is_stmt 1 view .LVU192
 580              	.L9:
 197:Drivers/STM32F7xx_HAL_Driver/Src/stm32f7xx_hal_rcc_ex.c ****     {
 581              		.loc 1 197 10 view .LVU193
 197:Drivers/STM32F7xx_HAL_Driver/Src/stm32f7xx_hal_rcc_ex.c ****     {
 582              		.loc 1 197 15 is_stmt 0 view .LVU194
 583 0328 B14B     		ldr	r3, .L89+4
 584 032a 1B68     		ldr	r3, [r3]
 197:Drivers/STM32F7xx_HAL_Driver/Src/stm32f7xx_hal_rcc_ex.c ****     {
 585              		.loc 1 197 10 view .LVU195
 586 032c 13F4807F 		tst	r3, #256
 587 0330 06D1     		bne	.L80
 199:Drivers/STM32F7xx_HAL_Driver/Src/stm32f7xx_hal_rcc_ex.c ****       {
 588              		.loc 1 199 7 is_stmt 1 view .LVU196
ARM GAS  /tmp/ccLEMPDN.s 			page 20


 199:Drivers/STM32F7xx_HAL_Driver/Src/stm32f7xx_hal_rcc_ex.c ****       {
 589              		.loc 1 199 11 is_stmt 0 view .LVU197
 590 0332 FFF7FEFF 		bl	HAL_GetTick
 591              	.LVL23:
 199:Drivers/STM32F7xx_HAL_Driver/Src/stm32f7xx_hal_rcc_ex.c ****       {
 592              		.loc 1 199 25 view .LVU198
 593 0336 C01B     		subs	r0, r0, r7
 199:Drivers/STM32F7xx_HAL_Driver/Src/stm32f7xx_hal_rcc_ex.c ****       {
 594              		.loc 1 199 9 view .LVU199
 595 0338 6428     		cmp	r0, #100
 596 033a F5D9     		bls	.L9
 201:Drivers/STM32F7xx_HAL_Driver/Src/stm32f7xx_hal_rcc_ex.c ****       }
 597              		.loc 1 201 16 view .LVU200
 598 033c 0320     		movs	r0, #3
 599 033e CAE0     		b	.L10
 600              	.L80:
 206:Drivers/STM32F7xx_HAL_Driver/Src/stm32f7xx_hal_rcc_ex.c **** 
 601              		.loc 1 206 5 is_stmt 1 view .LVU201
 206:Drivers/STM32F7xx_HAL_Driver/Src/stm32f7xx_hal_rcc_ex.c **** 
 602              		.loc 1 206 19 is_stmt 0 view .LVU202
 603 0340 AA4B     		ldr	r3, .L89
 604 0342 1B6F     		ldr	r3, [r3, #112]
 605              	.LVL24:
 208:Drivers/STM32F7xx_HAL_Driver/Src/stm32f7xx_hal_rcc_ex.c ****     {
 606              		.loc 1 208 5 is_stmt 1 view .LVU203
 208:Drivers/STM32F7xx_HAL_Driver/Src/stm32f7xx_hal_rcc_ex.c ****     {
 607              		.loc 1 208 7 is_stmt 0 view .LVU204
 608 0344 13F44073 		ands	r3, r3, #768
 609              	.LVL25:
 208:Drivers/STM32F7xx_HAL_Driver/Src/stm32f7xx_hal_rcc_ex.c ****     {
 610              		.loc 1 208 7 view .LVU205
 611 0348 15D0     		beq	.L12
 208:Drivers/STM32F7xx_HAL_Driver/Src/stm32f7xx_hal_rcc_ex.c ****     {
 612              		.loc 1 208 62 discriminator 1 view .LVU206
 613 034a 226B     		ldr	r2, [r4, #48]
 208:Drivers/STM32F7xx_HAL_Driver/Src/stm32f7xx_hal_rcc_ex.c ****     {
 614              		.loc 1 208 82 discriminator 1 view .LVU207
 615 034c 02F44072 		and	r2, r2, #768
 208:Drivers/STM32F7xx_HAL_Driver/Src/stm32f7xx_hal_rcc_ex.c ****     {
 616              		.loc 1 208 33 discriminator 1 view .LVU208
 617 0350 9A42     		cmp	r2, r3
 618 0352 10D0     		beq	.L12
 211:Drivers/STM32F7xx_HAL_Driver/Src/stm32f7xx_hal_rcc_ex.c **** 
 619              		.loc 1 211 7 is_stmt 1 view .LVU209
 211:Drivers/STM32F7xx_HAL_Driver/Src/stm32f7xx_hal_rcc_ex.c **** 
 620              		.loc 1 211 21 is_stmt 0 view .LVU210
 621 0354 A54B     		ldr	r3, .L89
 622              	.LVL26:
 211:Drivers/STM32F7xx_HAL_Driver/Src/stm32f7xx_hal_rcc_ex.c **** 
 623              		.loc 1 211 21 view .LVU211
 624 0356 1A6F     		ldr	r2, [r3, #112]
 211:Drivers/STM32F7xx_HAL_Driver/Src/stm32f7xx_hal_rcc_ex.c **** 
 625              		.loc 1 211 15 view .LVU212
 626 0358 22F44072 		bic	r2, r2, #768
 627              	.LVL27:
 214:Drivers/STM32F7xx_HAL_Driver/Src/stm32f7xx_hal_rcc_ex.c ****       __HAL_RCC_BACKUPRESET_RELEASE();
 628              		.loc 1 214 7 is_stmt 1 view .LVU213
ARM GAS  /tmp/ccLEMPDN.s 			page 21


 629 035c 196F     		ldr	r1, [r3, #112]
 630 035e 41F48031 		orr	r1, r1, #65536
 631 0362 1967     		str	r1, [r3, #112]
 215:Drivers/STM32F7xx_HAL_Driver/Src/stm32f7xx_hal_rcc_ex.c **** 
 632              		.loc 1 215 7 view .LVU214
 633 0364 196F     		ldr	r1, [r3, #112]
 634 0366 21F48031 		bic	r1, r1, #65536
 635 036a 1967     		str	r1, [r3, #112]
 218:Drivers/STM32F7xx_HAL_Driver/Src/stm32f7xx_hal_rcc_ex.c **** 
 636              		.loc 1 218 7 view .LVU215
 218:Drivers/STM32F7xx_HAL_Driver/Src/stm32f7xx_hal_rcc_ex.c **** 
 637              		.loc 1 218 17 is_stmt 0 view .LVU216
 638 036c 1A67     		str	r2, [r3, #112]
 221:Drivers/STM32F7xx_HAL_Driver/Src/stm32f7xx_hal_rcc_ex.c ****       {
 639              		.loc 1 221 7 is_stmt 1 view .LVU217
 221:Drivers/STM32F7xx_HAL_Driver/Src/stm32f7xx_hal_rcc_ex.c ****       {
 640              		.loc 1 221 11 is_stmt 0 view .LVU218
 641 036e 1B6F     		ldr	r3, [r3, #112]
 221:Drivers/STM32F7xx_HAL_Driver/Src/stm32f7xx_hal_rcc_ex.c ****       {
 642              		.loc 1 221 10 view .LVU219
 643 0370 13F0010F 		tst	r3, #1
 644 0374 12D1     		bne	.L81
 645              	.LVL28:
 646              	.L12:
 236:Drivers/STM32F7xx_HAL_Driver/Src/stm32f7xx_hal_rcc_ex.c ****   }
 647              		.loc 1 236 5 is_stmt 1 view .LVU220
 236:Drivers/STM32F7xx_HAL_Driver/Src/stm32f7xx_hal_rcc_ex.c ****   }
 648              		.loc 1 236 5 view .LVU221
 649 0376 236B     		ldr	r3, [r4, #48]
 650 0378 03F44072 		and	r2, r3, #768
 651 037c B2F5407F 		cmp	r2, #768
 652 0380 1DD0     		beq	.L82
 236:Drivers/STM32F7xx_HAL_Driver/Src/stm32f7xx_hal_rcc_ex.c ****   }
 653              		.loc 1 236 5 is_stmt 0 discriminator 2 view .LVU222
 654 0382 9A4A     		ldr	r2, .L89
 655 0384 9368     		ldr	r3, [r2, #8]
 656 0386 23F4F813 		bic	r3, r3, #2031616
 657 038a 9360     		str	r3, [r2, #8]
 658              	.L16:
 236:Drivers/STM32F7xx_HAL_Driver/Src/stm32f7xx_hal_rcc_ex.c ****   }
 659              		.loc 1 236 5 is_stmt 1 discriminator 4 view .LVU223
 660 038c 9749     		ldr	r1, .L89
 661 038e 0B6F     		ldr	r3, [r1, #112]
 662 0390 226B     		ldr	r2, [r4, #48]
 663 0392 C2F30B02 		ubfx	r2, r2, #0, #12
 664 0396 1343     		orrs	r3, r3, r2
 665 0398 0B67     		str	r3, [r1, #112]
 666 039a 79E6     		b	.L8
 667              	.LVL29:
 668              	.L81:
 224:Drivers/STM32F7xx_HAL_Driver/Src/stm32f7xx_hal_rcc_ex.c **** 
 669              		.loc 1 224 9 view .LVU224
 224:Drivers/STM32F7xx_HAL_Driver/Src/stm32f7xx_hal_rcc_ex.c **** 
 670              		.loc 1 224 21 is_stmt 0 view .LVU225
 671 039c FFF7FEFF 		bl	HAL_GetTick
 672              	.LVL30:
 224:Drivers/STM32F7xx_HAL_Driver/Src/stm32f7xx_hal_rcc_ex.c **** 
ARM GAS  /tmp/ccLEMPDN.s 			page 22


 673              		.loc 1 224 21 view .LVU226
 674 03a0 0746     		mov	r7, r0
 675              	.LVL31:
 227:Drivers/STM32F7xx_HAL_Driver/Src/stm32f7xx_hal_rcc_ex.c ****         {
 676              		.loc 1 227 9 is_stmt 1 view .LVU227
 677              	.L13:
 227:Drivers/STM32F7xx_HAL_Driver/Src/stm32f7xx_hal_rcc_ex.c ****         {
 678              		.loc 1 227 14 view .LVU228
 227:Drivers/STM32F7xx_HAL_Driver/Src/stm32f7xx_hal_rcc_ex.c ****         {
 679              		.loc 1 227 15 is_stmt 0 view .LVU229
 680 03a2 924B     		ldr	r3, .L89
 681 03a4 1B6F     		ldr	r3, [r3, #112]
 227:Drivers/STM32F7xx_HAL_Driver/Src/stm32f7xx_hal_rcc_ex.c ****         {
 682              		.loc 1 227 14 view .LVU230
 683 03a6 13F0020F 		tst	r3, #2
 684 03aa E4D1     		bne	.L12
 229:Drivers/STM32F7xx_HAL_Driver/Src/stm32f7xx_hal_rcc_ex.c ****           {
 685              		.loc 1 229 11 is_stmt 1 view .LVU231
 229:Drivers/STM32F7xx_HAL_Driver/Src/stm32f7xx_hal_rcc_ex.c ****           {
 686              		.loc 1 229 15 is_stmt 0 view .LVU232
 687 03ac FFF7FEFF 		bl	HAL_GetTick
 688              	.LVL32:
 229:Drivers/STM32F7xx_HAL_Driver/Src/stm32f7xx_hal_rcc_ex.c ****           {
 689              		.loc 1 229 29 view .LVU233
 690 03b0 C01B     		subs	r0, r0, r7
 229:Drivers/STM32F7xx_HAL_Driver/Src/stm32f7xx_hal_rcc_ex.c ****           {
 691              		.loc 1 229 13 view .LVU234
 692 03b2 41F28833 		movw	r3, #5000
 693 03b6 9842     		cmp	r0, r3
 694 03b8 F3D9     		bls	.L13
 231:Drivers/STM32F7xx_HAL_Driver/Src/stm32f7xx_hal_rcc_ex.c ****           }
 695              		.loc 1 231 20 view .LVU235
 696 03ba 0320     		movs	r0, #3
 697 03bc 8BE0     		b	.L10
 698              	.L82:
 236:Drivers/STM32F7xx_HAL_Driver/Src/stm32f7xx_hal_rcc_ex.c ****   }
 699              		.loc 1 236 5 discriminator 1 view .LVU236
 700 03be 8B48     		ldr	r0, .L89
 701 03c0 8268     		ldr	r2, [r0, #8]
 702 03c2 22F4F812 		bic	r2, r2, #2031616
 703 03c6 8B49     		ldr	r1, .L89+8
 704 03c8 1940     		ands	r1, r1, r3
 705 03ca 0A43     		orrs	r2, r2, r1
 706 03cc 8260     		str	r2, [r0, #8]
 707 03ce DDE7     		b	.L16
 708              	.LVL33:
 709              	.L78:
 391:Drivers/STM32F7xx_HAL_Driver/Src/stm32f7xx_hal_rcc_ex.c ****     }
 710              		.loc 1 391 18 view .LVU237
 711 03d0 0125     		movs	r5, #1
 712              	.LVL34:
 391:Drivers/STM32F7xx_HAL_Driver/Src/stm32f7xx_hal_rcc_ex.c ****     }
 713              		.loc 1 391 18 view .LVU238
 714 03d2 29E7     		b	.L31
 715              	.LVL35:
 716              	.L79:
 472:Drivers/STM32F7xx_HAL_Driver/Src/stm32f7xx_hal_rcc_ex.c ****       }
ARM GAS  /tmp/ccLEMPDN.s 			page 23


 473:Drivers/STM32F7xx_HAL_Driver/Src/stm32f7xx_hal_rcc_ex.c ****     }
 474:Drivers/STM32F7xx_HAL_Driver/Src/stm32f7xx_hal_rcc_ex.c **** 
 475:Drivers/STM32F7xx_HAL_Driver/Src/stm32f7xx_hal_rcc_ex.c ****     /* check for common PLLI2S Parameters */
 476:Drivers/STM32F7xx_HAL_Driver/Src/stm32f7xx_hal_rcc_ex.c ****     assert_param(IS_RCC_PLLI2SN_VALUE(PeriphClkInit->PLLI2S.PLLI2SN));
 717              		.loc 1 476 5 is_stmt 1 view .LVU239
 477:Drivers/STM32F7xx_HAL_Driver/Src/stm32f7xx_hal_rcc_ex.c **** 
 478:Drivers/STM32F7xx_HAL_Driver/Src/stm32f7xx_hal_rcc_ex.c ****     /*----------------- In Case of PLLI2S is selected as source clock for I2S -------------------*/
 479:Drivers/STM32F7xx_HAL_Driver/Src/stm32f7xx_hal_rcc_ex.c ****     if(((((PeriphClkInit->PeriphClockSelection) & RCC_PERIPHCLK_I2S) == RCC_PERIPHCLK_I2S) && (Peri
 718              		.loc 1 479 5 view .LVU240
 719              		.loc 1 479 25 is_stmt 0 view .LVU241
 720 03d4 2368     		ldr	r3, [r4]
 721              		.loc 1 479 7 view .LVU242
 722 03d6 13F0010F 		tst	r3, #1
 723 03da 13D0     		beq	.L42
 724              		.loc 1 479 109 discriminator 1 view .LVU243
 725 03dc 636B     		ldr	r3, [r4, #52]
 726              		.loc 1 479 92 discriminator 1 view .LVU244
 727 03de 8BB9     		cbnz	r3, .L42
 480:Drivers/STM32F7xx_HAL_Driver/Src/stm32f7xx_hal_rcc_ex.c ****     {
 481:Drivers/STM32F7xx_HAL_Driver/Src/stm32f7xx_hal_rcc_ex.c ****       /* check for Parameters */
 482:Drivers/STM32F7xx_HAL_Driver/Src/stm32f7xx_hal_rcc_ex.c ****       assert_param(IS_RCC_PLLI2SR_VALUE(PeriphClkInit->PLLI2S.PLLI2SR));
 728              		.loc 1 482 7 is_stmt 1 view .LVU245
 483:Drivers/STM32F7xx_HAL_Driver/Src/stm32f7xx_hal_rcc_ex.c **** 
 484:Drivers/STM32F7xx_HAL_Driver/Src/stm32f7xx_hal_rcc_ex.c ****       /* Read PLLI2SP and PLLI2SQ value from PLLI2SCFGR register (this value is not needed for I2S 
 485:Drivers/STM32F7xx_HAL_Driver/Src/stm32f7xx_hal_rcc_ex.c ****       tmpreg0 = ((RCC->PLLI2SCFGR & RCC_PLLI2SCFGR_PLLI2SP) >> RCC_PLLI2SCFGR_PLLI2SP_Pos);
 729              		.loc 1 485 7 view .LVU246
 730              		.loc 1 485 22 is_stmt 0 view .LVU247
 731 03e0 824A     		ldr	r2, .L89
 732 03e2 D2F88430 		ldr	r3, [r2, #132]
 733              	.LVL36:
 486:Drivers/STM32F7xx_HAL_Driver/Src/stm32f7xx_hal_rcc_ex.c ****       tmpreg1 = ((RCC->PLLI2SCFGR & RCC_PLLI2SCFGR_PLLI2SQ) >> RCC_PLLI2SCFGR_PLLI2SQ_Pos);
 734              		.loc 1 486 7 is_stmt 1 view .LVU248
 735              		.loc 1 486 22 is_stmt 0 view .LVU249
 736 03e6 D2F88410 		ldr	r1, [r2, #132]
 737              	.LVL37:
 487:Drivers/STM32F7xx_HAL_Driver/Src/stm32f7xx_hal_rcc_ex.c ****       /* Configure the PLLI2S division factors */
 488:Drivers/STM32F7xx_HAL_Driver/Src/stm32f7xx_hal_rcc_ex.c ****       /* PLLI2S_VCO = f(VCO clock) = f(PLLI2S clock input) x (PLLI2SN/PLLM) */
 489:Drivers/STM32F7xx_HAL_Driver/Src/stm32f7xx_hal_rcc_ex.c ****       /* I2SCLK = f(PLLI2S clock output) = f(VCO clock) / PLLI2SR */
 490:Drivers/STM32F7xx_HAL_Driver/Src/stm32f7xx_hal_rcc_ex.c ****       __HAL_RCC_PLLI2S_CONFIG(PeriphClkInit->PLLI2S.PLLI2SN , tmpreg0, tmpreg1, PeriphClkInit->PLLI
 738              		.loc 1 490 7 is_stmt 1 view .LVU250
 739 03ea 6068     		ldr	r0, [r4, #4]
 740 03ec 03F44033 		and	r3, r3, #196608
 741              	.LVL38:
 742              		.loc 1 490 7 is_stmt 0 view .LVU251
 743 03f0 43EA8013 		orr	r3, r3, r0, lsl #6
 744 03f4 01F07061 		and	r1, r1, #251658240
 745              	.LVL39:
 746              		.loc 1 490 7 view .LVU252
 747 03f8 0B43     		orrs	r3, r3, r1
 748 03fa A168     		ldr	r1, [r4, #8]
 749 03fc 43EA0173 		orr	r3, r3, r1, lsl #28
 750 0400 C2F88430 		str	r3, [r2, #132]
 751              	.L42:
 491:Drivers/STM32F7xx_HAL_Driver/Src/stm32f7xx_hal_rcc_ex.c ****     }
 492:Drivers/STM32F7xx_HAL_Driver/Src/stm32f7xx_hal_rcc_ex.c **** 
 493:Drivers/STM32F7xx_HAL_Driver/Src/stm32f7xx_hal_rcc_ex.c ****     /*----------------- In Case of PLLI2S is selected as source clock for SAI -------------------*/
 494:Drivers/STM32F7xx_HAL_Driver/Src/stm32f7xx_hal_rcc_ex.c ****     if(((((PeriphClkInit->PeriphClockSelection) & RCC_PERIPHCLK_SAI1) == RCC_PERIPHCLK_SAI1) && (Pe
ARM GAS  /tmp/ccLEMPDN.s 			page 24


 752              		.loc 1 494 5 is_stmt 1 view .LVU253
 753              		.loc 1 494 25 is_stmt 0 view .LVU254
 754 0404 2368     		ldr	r3, [r4]
 755              		.loc 1 494 7 view .LVU255
 756 0406 13F4002F 		tst	r3, #524288
 757 040a 03D0     		beq	.L43
 758              		.loc 1 494 111 discriminator 1 view .LVU256
 759 040c E26B     		ldr	r2, [r4, #60]
 760              		.loc 1 494 94 discriminator 1 view .LVU257
 761 040e B2F5801F 		cmp	r2, #1048576
 762 0412 06D0     		beq	.L44
 763              	.L43:
 764              		.loc 1 494 162 discriminator 3 view .LVU258
 765 0414 13F4801F 		tst	r3, #1048576
 766 0418 1ED0     		beq	.L45
 495:Drivers/STM32F7xx_HAL_Driver/Src/stm32f7xx_hal_rcc_ex.c ****        ((((PeriphClkInit->PeriphClockSelection) & RCC_PERIPHCLK_SAI2) == RCC_PERIPHCLK_SAI2) && (Pe
 767              		.loc 1 495 111 view .LVU259
 768 041a 236C     		ldr	r3, [r4, #64]
 769              		.loc 1 495 94 view .LVU260
 770 041c B3F5800F 		cmp	r3, #4194304
 771 0420 1AD1     		bne	.L45
 772              	.L44:
 496:Drivers/STM32F7xx_HAL_Driver/Src/stm32f7xx_hal_rcc_ex.c ****     {
 497:Drivers/STM32F7xx_HAL_Driver/Src/stm32f7xx_hal_rcc_ex.c ****       /* Check for PLLI2S Parameters */
 498:Drivers/STM32F7xx_HAL_Driver/Src/stm32f7xx_hal_rcc_ex.c ****       assert_param(IS_RCC_PLLI2SQ_VALUE(PeriphClkInit->PLLI2S.PLLI2SQ));
 773              		.loc 1 498 7 is_stmt 1 view .LVU261
 499:Drivers/STM32F7xx_HAL_Driver/Src/stm32f7xx_hal_rcc_ex.c ****       /* Check for PLLI2S/DIVQ parameters */
 500:Drivers/STM32F7xx_HAL_Driver/Src/stm32f7xx_hal_rcc_ex.c ****       assert_param(IS_RCC_PLLI2S_DIVQ_VALUE(PeriphClkInit->PLLI2SDivQ));
 774              		.loc 1 500 7 view .LVU262
 501:Drivers/STM32F7xx_HAL_Driver/Src/stm32f7xx_hal_rcc_ex.c **** 
 502:Drivers/STM32F7xx_HAL_Driver/Src/stm32f7xx_hal_rcc_ex.c ****       /* Read PLLI2SP and PLLI2SR values from PLLI2SCFGR register (this value is not needed for SAI
 503:Drivers/STM32F7xx_HAL_Driver/Src/stm32f7xx_hal_rcc_ex.c ****       tmpreg0 = ((RCC->PLLI2SCFGR & RCC_PLLI2SCFGR_PLLI2SP) >> RCC_PLLI2SCFGR_PLLI2SP_Pos);
 775              		.loc 1 503 7 view .LVU263
 776              		.loc 1 503 22 is_stmt 0 view .LVU264
 777 0422 724A     		ldr	r2, .L89
 778 0424 D2F88430 		ldr	r3, [r2, #132]
 779              	.LVL40:
 504:Drivers/STM32F7xx_HAL_Driver/Src/stm32f7xx_hal_rcc_ex.c ****       tmpreg1 = ((RCC->PLLI2SCFGR & RCC_PLLI2SCFGR_PLLI2SR) >> RCC_PLLI2SCFGR_PLLI2SR_Pos);
 780              		.loc 1 504 7 is_stmt 1 view .LVU265
 781              		.loc 1 504 22 is_stmt 0 view .LVU266
 782 0428 D2F88410 		ldr	r1, [r2, #132]
 783              	.LVL41:
 505:Drivers/STM32F7xx_HAL_Driver/Src/stm32f7xx_hal_rcc_ex.c ****       /* Configure the PLLI2S division factors */
 506:Drivers/STM32F7xx_HAL_Driver/Src/stm32f7xx_hal_rcc_ex.c ****       /* PLLI2S_VCO Input  = PLL_SOURCE/PLLM */
 507:Drivers/STM32F7xx_HAL_Driver/Src/stm32f7xx_hal_rcc_ex.c ****       /* PLLI2S_VCO Output = PLLI2S_VCO Input * PLLI2SN */
 508:Drivers/STM32F7xx_HAL_Driver/Src/stm32f7xx_hal_rcc_ex.c ****       /* SAI_CLK(first level) = PLLI2S_VCO Output/PLLI2SQ */
 509:Drivers/STM32F7xx_HAL_Driver/Src/stm32f7xx_hal_rcc_ex.c ****       __HAL_RCC_PLLI2S_CONFIG(PeriphClkInit->PLLI2S.PLLI2SN, tmpreg0, PeriphClkInit->PLLI2S.PLLI2SQ
 784              		.loc 1 509 7 is_stmt 1 view .LVU267
 785 042c 6068     		ldr	r0, [r4, #4]
 786 042e 03F44033 		and	r3, r3, #196608
 787              	.LVL42:
 788              		.loc 1 509 7 is_stmt 0 view .LVU268
 789 0432 43EA8013 		orr	r3, r3, r0, lsl #6
 790 0436 E068     		ldr	r0, [r4, #12]
 791 0438 43EA0063 		orr	r3, r3, r0, lsl #24
 792 043c 01F0E041 		and	r1, r1, #1879048192
 793              	.LVL43:
ARM GAS  /tmp/ccLEMPDN.s 			page 25


 794              		.loc 1 509 7 view .LVU269
 795 0440 0B43     		orrs	r3, r3, r1
 796 0442 C2F88430 		str	r3, [r2, #132]
 510:Drivers/STM32F7xx_HAL_Driver/Src/stm32f7xx_hal_rcc_ex.c **** 
 511:Drivers/STM32F7xx_HAL_Driver/Src/stm32f7xx_hal_rcc_ex.c ****       /* SAI_CLK_x = SAI_CLK(first level)/PLLI2SDIVQ */
 512:Drivers/STM32F7xx_HAL_Driver/Src/stm32f7xx_hal_rcc_ex.c ****       __HAL_RCC_PLLI2S_PLLSAICLKDIVQ_CONFIG(PeriphClkInit->PLLI2SDivQ);
 797              		.loc 1 512 7 is_stmt 1 view .LVU270
 798 0446 D2F88C30 		ldr	r3, [r2, #140]
 799 044a 23F01F03 		bic	r3, r3, #31
 800 044e 616A     		ldr	r1, [r4, #36]
 801 0450 0139     		subs	r1, r1, #1
 802 0452 0B43     		orrs	r3, r3, r1
 803 0454 C2F88C30 		str	r3, [r2, #140]
 804              	.L45:
 513:Drivers/STM32F7xx_HAL_Driver/Src/stm32f7xx_hal_rcc_ex.c ****     }
 514:Drivers/STM32F7xx_HAL_Driver/Src/stm32f7xx_hal_rcc_ex.c **** 
 515:Drivers/STM32F7xx_HAL_Driver/Src/stm32f7xx_hal_rcc_ex.c ****     /*----------------- In Case of PLLI2S is selected as source clock for SPDIF-RX ----------------
 516:Drivers/STM32F7xx_HAL_Driver/Src/stm32f7xx_hal_rcc_ex.c ****     if(((PeriphClkInit->PeriphClockSelection) & RCC_PERIPHCLK_SPDIFRX) == RCC_PERIPHCLK_SPDIFRX)
 805              		.loc 1 516 5 view .LVU271
 806              		.loc 1 516 23 is_stmt 0 view .LVU272
 807 0458 2368     		ldr	r3, [r4]
 808              		.loc 1 516 7 view .LVU273
 809 045a 13F0807F 		tst	r3, #16777216
 810 045e 11D0     		beq	.L46
 517:Drivers/STM32F7xx_HAL_Driver/Src/stm32f7xx_hal_rcc_ex.c ****     {
 518:Drivers/STM32F7xx_HAL_Driver/Src/stm32f7xx_hal_rcc_ex.c ****       /* check for Parameters */
 519:Drivers/STM32F7xx_HAL_Driver/Src/stm32f7xx_hal_rcc_ex.c ****       assert_param(IS_RCC_PLLI2SP_VALUE(PeriphClkInit->PLLI2S.PLLI2SP));
 811              		.loc 1 519 7 is_stmt 1 view .LVU274
 520:Drivers/STM32F7xx_HAL_Driver/Src/stm32f7xx_hal_rcc_ex.c **** 
 521:Drivers/STM32F7xx_HAL_Driver/Src/stm32f7xx_hal_rcc_ex.c ****      /* Read PLLI2SR value from PLLI2SCFGR register (this value is not needed for SPDIF-RX configur
 522:Drivers/STM32F7xx_HAL_Driver/Src/stm32f7xx_hal_rcc_ex.c ****       tmpreg0 = ((RCC->PLLI2SCFGR & RCC_PLLI2SCFGR_PLLI2SQ) >> RCC_PLLI2SCFGR_PLLI2SQ_Pos);
 812              		.loc 1 522 7 view .LVU275
 813              		.loc 1 522 22 is_stmt 0 view .LVU276
 814 0460 624A     		ldr	r2, .L89
 815 0462 D2F88400 		ldr	r0, [r2, #132]
 816              	.LVL44:
 523:Drivers/STM32F7xx_HAL_Driver/Src/stm32f7xx_hal_rcc_ex.c ****       tmpreg1 = ((RCC->PLLI2SCFGR & RCC_PLLI2SCFGR_PLLI2SR) >> RCC_PLLI2SCFGR_PLLI2SR_Pos);
 817              		.loc 1 523 7 is_stmt 1 view .LVU277
 818              		.loc 1 523 22 is_stmt 0 view .LVU278
 819 0466 D2F88410 		ldr	r1, [r2, #132]
 820              	.LVL45:
 524:Drivers/STM32F7xx_HAL_Driver/Src/stm32f7xx_hal_rcc_ex.c ****       /* Configure the PLLI2S division factors */
 525:Drivers/STM32F7xx_HAL_Driver/Src/stm32f7xx_hal_rcc_ex.c ****       /* PLLI2S_VCO = f(VCO clock) = f(PLLI2S clock input) x (PLLI2SN/PLLM) */
 526:Drivers/STM32F7xx_HAL_Driver/Src/stm32f7xx_hal_rcc_ex.c ****       /* SPDIFCLK = f(PLLI2S clock output) = f(VCO clock) / PLLI2SP */
 527:Drivers/STM32F7xx_HAL_Driver/Src/stm32f7xx_hal_rcc_ex.c ****       __HAL_RCC_PLLI2S_CONFIG(PeriphClkInit->PLLI2S.PLLI2SN , PeriphClkInit->PLLI2S.PLLI2SP, tmpreg
 821              		.loc 1 527 7 is_stmt 1 view .LVU279
 822 046a 6668     		ldr	r6, [r4, #4]
 823              	.LVL46:
 824              		.loc 1 527 7 is_stmt 0 view .LVU280
 825 046c 2369     		ldr	r3, [r4, #16]
 826 046e 1B04     		lsls	r3, r3, #16
 827 0470 43EA8613 		orr	r3, r3, r6, lsl #6
 828 0474 00F07060 		and	r0, r0, #251658240
 829              	.LVL47:
 830              		.loc 1 527 7 view .LVU281
 831 0478 0343     		orrs	r3, r3, r0
 832 047a 01F0E041 		and	r1, r1, #1879048192
ARM GAS  /tmp/ccLEMPDN.s 			page 26


 833              	.LVL48:
 834              		.loc 1 527 7 view .LVU282
 835 047e 0B43     		orrs	r3, r3, r1
 836 0480 C2F88430 		str	r3, [r2, #132]
 837              	.L46:
 528:Drivers/STM32F7xx_HAL_Driver/Src/stm32f7xx_hal_rcc_ex.c ****     }
 529:Drivers/STM32F7xx_HAL_Driver/Src/stm32f7xx_hal_rcc_ex.c **** 
 530:Drivers/STM32F7xx_HAL_Driver/Src/stm32f7xx_hal_rcc_ex.c ****     /*----------------- In Case of PLLI2S is just selected  -----------------*/
 531:Drivers/STM32F7xx_HAL_Driver/Src/stm32f7xx_hal_rcc_ex.c ****     if((PeriphClkInit->PeriphClockSelection & RCC_PERIPHCLK_PLLI2S) == RCC_PERIPHCLK_PLLI2S)
 838              		.loc 1 531 5 is_stmt 1 view .LVU283
 839              		.loc 1 531 22 is_stmt 0 view .LVU284
 840 0484 2368     		ldr	r3, [r4]
 841              		.loc 1 531 7 view .LVU285
 842 0486 13F0007F 		tst	r3, #33554432
 843 048a 0DD0     		beq	.L47
 532:Drivers/STM32F7xx_HAL_Driver/Src/stm32f7xx_hal_rcc_ex.c ****     {
 533:Drivers/STM32F7xx_HAL_Driver/Src/stm32f7xx_hal_rcc_ex.c ****       /* Check for Parameters */
 534:Drivers/STM32F7xx_HAL_Driver/Src/stm32f7xx_hal_rcc_ex.c ****       assert_param(IS_RCC_PLLI2SP_VALUE(PeriphClkInit->PLLI2S.PLLI2SP));
 844              		.loc 1 534 7 is_stmt 1 view .LVU286
 535:Drivers/STM32F7xx_HAL_Driver/Src/stm32f7xx_hal_rcc_ex.c ****       assert_param(IS_RCC_PLLI2SR_VALUE(PeriphClkInit->PLLI2S.PLLI2SR));
 845              		.loc 1 535 7 view .LVU287
 536:Drivers/STM32F7xx_HAL_Driver/Src/stm32f7xx_hal_rcc_ex.c ****       assert_param(IS_RCC_PLLI2SQ_VALUE(PeriphClkInit->PLLI2S.PLLI2SQ));
 846              		.loc 1 536 7 view .LVU288
 537:Drivers/STM32F7xx_HAL_Driver/Src/stm32f7xx_hal_rcc_ex.c **** 
 538:Drivers/STM32F7xx_HAL_Driver/Src/stm32f7xx_hal_rcc_ex.c ****       /* Configure the PLLI2S division factors */
 539:Drivers/STM32F7xx_HAL_Driver/Src/stm32f7xx_hal_rcc_ex.c ****       /* PLLI2S_VCO = f(VCO clock) = f(PLLI2S clock input) x (PLLI2SN/PLLI2SM) */
 540:Drivers/STM32F7xx_HAL_Driver/Src/stm32f7xx_hal_rcc_ex.c ****       /* SPDIFRXCLK = f(PLLI2S clock output) = f(VCO clock) / PLLI2SP */
 541:Drivers/STM32F7xx_HAL_Driver/Src/stm32f7xx_hal_rcc_ex.c ****       __HAL_RCC_PLLI2S_CONFIG(PeriphClkInit->PLLI2S.PLLI2SN , PeriphClkInit->PLLI2S.PLLI2SP, Periph
 847              		.loc 1 541 7 view .LVU289
 848 048c 6268     		ldr	r2, [r4, #4]
 849 048e 2369     		ldr	r3, [r4, #16]
 850 0490 1B04     		lsls	r3, r3, #16
 851 0492 43EA8213 		orr	r3, r3, r2, lsl #6
 852 0496 E268     		ldr	r2, [r4, #12]
 853 0498 43EA0263 		orr	r3, r3, r2, lsl #24
 854 049c A268     		ldr	r2, [r4, #8]
 855 049e 43EA0273 		orr	r3, r3, r2, lsl #28
 856 04a2 524A     		ldr	r2, .L89
 857 04a4 C2F88430 		str	r3, [r2, #132]
 858              	.L47:
 542:Drivers/STM32F7xx_HAL_Driver/Src/stm32f7xx_hal_rcc_ex.c ****     }
 543:Drivers/STM32F7xx_HAL_Driver/Src/stm32f7xx_hal_rcc_ex.c **** 
 544:Drivers/STM32F7xx_HAL_Driver/Src/stm32f7xx_hal_rcc_ex.c ****     /* Enable the PLLI2S */
 545:Drivers/STM32F7xx_HAL_Driver/Src/stm32f7xx_hal_rcc_ex.c ****     __HAL_RCC_PLLI2S_ENABLE();
 859              		.loc 1 545 5 view .LVU290
 860 04a8 504A     		ldr	r2, .L89
 861 04aa 1368     		ldr	r3, [r2]
 862 04ac 43F08063 		orr	r3, r3, #67108864
 863 04b0 1360     		str	r3, [r2]
 546:Drivers/STM32F7xx_HAL_Driver/Src/stm32f7xx_hal_rcc_ex.c **** 
 547:Drivers/STM32F7xx_HAL_Driver/Src/stm32f7xx_hal_rcc_ex.c ****     /* Get Start Tick*/
 548:Drivers/STM32F7xx_HAL_Driver/Src/stm32f7xx_hal_rcc_ex.c ****     tickstart = HAL_GetTick();
 864              		.loc 1 548 5 view .LVU291
 865              		.loc 1 548 17 is_stmt 0 view .LVU292
 866 04b2 FFF7FEFF 		bl	HAL_GetTick
 867              	.LVL49:
 868 04b6 0646     		mov	r6, r0
ARM GAS  /tmp/ccLEMPDN.s 			page 27


 869              	.LVL50:
 549:Drivers/STM32F7xx_HAL_Driver/Src/stm32f7xx_hal_rcc_ex.c **** 
 550:Drivers/STM32F7xx_HAL_Driver/Src/stm32f7xx_hal_rcc_ex.c ****     /* Wait till PLLI2S is ready */
 551:Drivers/STM32F7xx_HAL_Driver/Src/stm32f7xx_hal_rcc_ex.c ****     while(__HAL_RCC_GET_FLAG(RCC_FLAG_PLLI2SRDY)  == RESET)
 870              		.loc 1 551 5 is_stmt 1 view .LVU293
 871              	.L48:
 872              		.loc 1 551 10 view .LVU294
 873              		.loc 1 551 11 is_stmt 0 view .LVU295
 874 04b8 4C4B     		ldr	r3, .L89
 875 04ba 1B68     		ldr	r3, [r3]
 876              		.loc 1 551 10 view .LVU296
 877 04bc 13F0006F 		tst	r3, #134217728
 878 04c0 06D1     		bne	.L39
 552:Drivers/STM32F7xx_HAL_Driver/Src/stm32f7xx_hal_rcc_ex.c ****     {
 553:Drivers/STM32F7xx_HAL_Driver/Src/stm32f7xx_hal_rcc_ex.c ****       if((HAL_GetTick() - tickstart) > PLLI2S_TIMEOUT_VALUE)
 879              		.loc 1 553 7 is_stmt 1 view .LVU297
 880              		.loc 1 553 11 is_stmt 0 view .LVU298
 881 04c2 FFF7FEFF 		bl	HAL_GetTick
 882              	.LVL51:
 883              		.loc 1 553 25 view .LVU299
 884 04c6 801B     		subs	r0, r0, r6
 885              		.loc 1 553 9 view .LVU300
 886 04c8 6428     		cmp	r0, #100
 887 04ca F5D9     		bls	.L48
 554:Drivers/STM32F7xx_HAL_Driver/Src/stm32f7xx_hal_rcc_ex.c ****       {
 555:Drivers/STM32F7xx_HAL_Driver/Src/stm32f7xx_hal_rcc_ex.c ****         /* return in case of Timeout detected */
 556:Drivers/STM32F7xx_HAL_Driver/Src/stm32f7xx_hal_rcc_ex.c ****         return HAL_TIMEOUT;
 888              		.loc 1 556 16 view .LVU301
 889 04cc 0320     		movs	r0, #3
 890 04ce 02E0     		b	.L10
 891              	.LVL52:
 892              	.L39:
 557:Drivers/STM32F7xx_HAL_Driver/Src/stm32f7xx_hal_rcc_ex.c ****       }
 558:Drivers/STM32F7xx_HAL_Driver/Src/stm32f7xx_hal_rcc_ex.c ****     }
 559:Drivers/STM32F7xx_HAL_Driver/Src/stm32f7xx_hal_rcc_ex.c ****   }
 560:Drivers/STM32F7xx_HAL_Driver/Src/stm32f7xx_hal_rcc_ex.c **** 
 561:Drivers/STM32F7xx_HAL_Driver/Src/stm32f7xx_hal_rcc_ex.c ****   /*-------------------------------------- PLLSAI Configuration ---------------------------------*/
 562:Drivers/STM32F7xx_HAL_Driver/Src/stm32f7xx_hal_rcc_ex.c ****   /* PLLSAI is configured when a peripheral will use it as source clock : SAI1, SAI2, LTDC or CK48 
 563:Drivers/STM32F7xx_HAL_Driver/Src/stm32f7xx_hal_rcc_ex.c ****   if(pllsaiused == 1)
 893              		.loc 1 563 3 is_stmt 1 view .LVU302
 894              		.loc 1 563 5 is_stmt 0 view .LVU303
 895 04d0 012D     		cmp	r5, #1
 896 04d2 02D0     		beq	.L83
 564:Drivers/STM32F7xx_HAL_Driver/Src/stm32f7xx_hal_rcc_ex.c ****   {
 565:Drivers/STM32F7xx_HAL_Driver/Src/stm32f7xx_hal_rcc_ex.c ****     /* Disable PLLSAI Clock */
 566:Drivers/STM32F7xx_HAL_Driver/Src/stm32f7xx_hal_rcc_ex.c ****     __HAL_RCC_PLLSAI_DISABLE();
 567:Drivers/STM32F7xx_HAL_Driver/Src/stm32f7xx_hal_rcc_ex.c **** 
 568:Drivers/STM32F7xx_HAL_Driver/Src/stm32f7xx_hal_rcc_ex.c ****     /* Get Start Tick*/
 569:Drivers/STM32F7xx_HAL_Driver/Src/stm32f7xx_hal_rcc_ex.c ****     tickstart = HAL_GetTick();
 570:Drivers/STM32F7xx_HAL_Driver/Src/stm32f7xx_hal_rcc_ex.c **** 
 571:Drivers/STM32F7xx_HAL_Driver/Src/stm32f7xx_hal_rcc_ex.c ****     /* Wait till PLLSAI is disabled */
 572:Drivers/STM32F7xx_HAL_Driver/Src/stm32f7xx_hal_rcc_ex.c ****     while(__HAL_RCC_PLLSAI_GET_FLAG() != RESET)
 573:Drivers/STM32F7xx_HAL_Driver/Src/stm32f7xx_hal_rcc_ex.c ****     {
 574:Drivers/STM32F7xx_HAL_Driver/Src/stm32f7xx_hal_rcc_ex.c ****       if((HAL_GetTick() - tickstart) > PLLSAI_TIMEOUT_VALUE)
 575:Drivers/STM32F7xx_HAL_Driver/Src/stm32f7xx_hal_rcc_ex.c ****       {
 576:Drivers/STM32F7xx_HAL_Driver/Src/stm32f7xx_hal_rcc_ex.c ****         /* return in case of Timeout detected */
 577:Drivers/STM32F7xx_HAL_Driver/Src/stm32f7xx_hal_rcc_ex.c ****         return HAL_TIMEOUT;
ARM GAS  /tmp/ccLEMPDN.s 			page 28


 578:Drivers/STM32F7xx_HAL_Driver/Src/stm32f7xx_hal_rcc_ex.c ****       }
 579:Drivers/STM32F7xx_HAL_Driver/Src/stm32f7xx_hal_rcc_ex.c ****     }
 580:Drivers/STM32F7xx_HAL_Driver/Src/stm32f7xx_hal_rcc_ex.c **** 
 581:Drivers/STM32F7xx_HAL_Driver/Src/stm32f7xx_hal_rcc_ex.c ****     /* Check the PLLSAI division factors */
 582:Drivers/STM32F7xx_HAL_Driver/Src/stm32f7xx_hal_rcc_ex.c ****     assert_param(IS_RCC_PLLSAIN_VALUE(PeriphClkInit->PLLSAI.PLLSAIN));
 583:Drivers/STM32F7xx_HAL_Driver/Src/stm32f7xx_hal_rcc_ex.c **** 
 584:Drivers/STM32F7xx_HAL_Driver/Src/stm32f7xx_hal_rcc_ex.c ****     /*----------------- In Case of PLLSAI is selected as source clock for SAI -------------------*/
 585:Drivers/STM32F7xx_HAL_Driver/Src/stm32f7xx_hal_rcc_ex.c ****     if(((((PeriphClkInit->PeriphClockSelection) & RCC_PERIPHCLK_SAI1) == RCC_PERIPHCLK_SAI1) && (Pe
 586:Drivers/STM32F7xx_HAL_Driver/Src/stm32f7xx_hal_rcc_ex.c ****        ((((PeriphClkInit->PeriphClockSelection) & RCC_PERIPHCLK_SAI2) == RCC_PERIPHCLK_SAI2) && (Pe
 587:Drivers/STM32F7xx_HAL_Driver/Src/stm32f7xx_hal_rcc_ex.c ****     {
 588:Drivers/STM32F7xx_HAL_Driver/Src/stm32f7xx_hal_rcc_ex.c ****       /* check for PLLSAIQ Parameter */
 589:Drivers/STM32F7xx_HAL_Driver/Src/stm32f7xx_hal_rcc_ex.c ****       assert_param(IS_RCC_PLLSAIQ_VALUE(PeriphClkInit->PLLSAI.PLLSAIQ));
 590:Drivers/STM32F7xx_HAL_Driver/Src/stm32f7xx_hal_rcc_ex.c ****       /* check for PLLSAI/DIVQ Parameter */
 591:Drivers/STM32F7xx_HAL_Driver/Src/stm32f7xx_hal_rcc_ex.c ****       assert_param(IS_RCC_PLLSAI_DIVQ_VALUE(PeriphClkInit->PLLSAIDivQ));
 592:Drivers/STM32F7xx_HAL_Driver/Src/stm32f7xx_hal_rcc_ex.c **** 
 593:Drivers/STM32F7xx_HAL_Driver/Src/stm32f7xx_hal_rcc_ex.c ****       /* Read PLLSAIP value from PLLSAICFGR register (this value is not needed for SAI configuratio
 594:Drivers/STM32F7xx_HAL_Driver/Src/stm32f7xx_hal_rcc_ex.c ****       tmpreg0 = ((RCC->PLLSAICFGR & RCC_PLLSAICFGR_PLLSAIP) >> RCC_PLLSAICFGR_PLLSAIP_Pos);
 595:Drivers/STM32F7xx_HAL_Driver/Src/stm32f7xx_hal_rcc_ex.c ****       tmpreg1 = ((RCC->PLLSAICFGR & RCC_PLLI2SCFGR_PLLI2SR) >> RCC_PLLSAICFGR_PLLSAIR_Pos);
 596:Drivers/STM32F7xx_HAL_Driver/Src/stm32f7xx_hal_rcc_ex.c ****       /* PLLSAI_VCO Input  = PLL_SOURCE/PLLM */
 597:Drivers/STM32F7xx_HAL_Driver/Src/stm32f7xx_hal_rcc_ex.c ****       /* PLLSAI_VCO Output = PLLSAI_VCO Input * PLLSAIN */
 598:Drivers/STM32F7xx_HAL_Driver/Src/stm32f7xx_hal_rcc_ex.c ****       /* SAI_CLK(first level) = PLLSAI_VCO Output/PLLSAIQ */
 599:Drivers/STM32F7xx_HAL_Driver/Src/stm32f7xx_hal_rcc_ex.c ****       __HAL_RCC_PLLSAI_CONFIG(PeriphClkInit->PLLSAI.PLLSAIN , tmpreg0, PeriphClkInit->PLLSAI.PLLSAI
 600:Drivers/STM32F7xx_HAL_Driver/Src/stm32f7xx_hal_rcc_ex.c **** 
 601:Drivers/STM32F7xx_HAL_Driver/Src/stm32f7xx_hal_rcc_ex.c ****       /* SAI_CLK_x = SAI_CLK(first level)/PLLSAIDIVQ */
 602:Drivers/STM32F7xx_HAL_Driver/Src/stm32f7xx_hal_rcc_ex.c ****       __HAL_RCC_PLLSAI_PLLSAICLKDIVQ_CONFIG(PeriphClkInit->PLLSAIDivQ);
 603:Drivers/STM32F7xx_HAL_Driver/Src/stm32f7xx_hal_rcc_ex.c ****     }
 604:Drivers/STM32F7xx_HAL_Driver/Src/stm32f7xx_hal_rcc_ex.c **** 
 605:Drivers/STM32F7xx_HAL_Driver/Src/stm32f7xx_hal_rcc_ex.c ****     /*----------------- In Case of PLLSAI is selected as source clock for CLK48 -------------------
 606:Drivers/STM32F7xx_HAL_Driver/Src/stm32f7xx_hal_rcc_ex.c ****     /* In Case of PLLI2S is selected as source clock for CK48 */
 607:Drivers/STM32F7xx_HAL_Driver/Src/stm32f7xx_hal_rcc_ex.c ****     if((((PeriphClkInit->PeriphClockSelection) & RCC_PERIPHCLK_CLK48) == RCC_PERIPHCLK_CLK48) && (P
 608:Drivers/STM32F7xx_HAL_Driver/Src/stm32f7xx_hal_rcc_ex.c ****     {
 609:Drivers/STM32F7xx_HAL_Driver/Src/stm32f7xx_hal_rcc_ex.c ****       /* check for Parameters */
 610:Drivers/STM32F7xx_HAL_Driver/Src/stm32f7xx_hal_rcc_ex.c ****       assert_param(IS_RCC_PLLSAIP_VALUE(PeriphClkInit->PLLSAI.PLLSAIP));
 611:Drivers/STM32F7xx_HAL_Driver/Src/stm32f7xx_hal_rcc_ex.c ****       /* Read PLLSAIQ and PLLSAIR value from PLLSAICFGR register (this value is not needed for CK48
 612:Drivers/STM32F7xx_HAL_Driver/Src/stm32f7xx_hal_rcc_ex.c ****       tmpreg0 = ((RCC->PLLSAICFGR & RCC_PLLSAICFGR_PLLSAIQ) >> RCC_PLLSAICFGR_PLLSAIQ_Pos);
 613:Drivers/STM32F7xx_HAL_Driver/Src/stm32f7xx_hal_rcc_ex.c ****       tmpreg1 = ((RCC->PLLSAICFGR & RCC_PLLSAICFGR_PLLSAIR) >> RCC_PLLSAICFGR_PLLSAIR_Pos);
 614:Drivers/STM32F7xx_HAL_Driver/Src/stm32f7xx_hal_rcc_ex.c **** 
 615:Drivers/STM32F7xx_HAL_Driver/Src/stm32f7xx_hal_rcc_ex.c ****       /* Configure the PLLSAI division factors */
 616:Drivers/STM32F7xx_HAL_Driver/Src/stm32f7xx_hal_rcc_ex.c ****       /* PLLSAI_VCO = f(VCO clock) = f(PLLSAI clock input) x (PLLI2SN/PLLM) */
 617:Drivers/STM32F7xx_HAL_Driver/Src/stm32f7xx_hal_rcc_ex.c ****       /* 48CLK = f(PLLSAI clock output) = f(VCO clock) / PLLSAIP */
 618:Drivers/STM32F7xx_HAL_Driver/Src/stm32f7xx_hal_rcc_ex.c ****       __HAL_RCC_PLLSAI_CONFIG(PeriphClkInit->PLLSAI.PLLSAIN , PeriphClkInit->PLLSAI.PLLSAIP, tmpreg
 619:Drivers/STM32F7xx_HAL_Driver/Src/stm32f7xx_hal_rcc_ex.c ****     }
 620:Drivers/STM32F7xx_HAL_Driver/Src/stm32f7xx_hal_rcc_ex.c **** 
 621:Drivers/STM32F7xx_HAL_Driver/Src/stm32f7xx_hal_rcc_ex.c **** #if defined(STM32F746xx) || defined(STM32F756xx) || defined (STM32F767xx) || defined (STM32F769xx) 
 622:Drivers/STM32F7xx_HAL_Driver/Src/stm32f7xx_hal_rcc_ex.c ****     /*---------------------------- LTDC configuration -------------------------------*/
 623:Drivers/STM32F7xx_HAL_Driver/Src/stm32f7xx_hal_rcc_ex.c ****     if(((PeriphClkInit->PeriphClockSelection) & RCC_PERIPHCLK_LTDC) == (RCC_PERIPHCLK_LTDC))
 624:Drivers/STM32F7xx_HAL_Driver/Src/stm32f7xx_hal_rcc_ex.c ****     {
 625:Drivers/STM32F7xx_HAL_Driver/Src/stm32f7xx_hal_rcc_ex.c ****       assert_param(IS_RCC_PLLSAIR_VALUE(PeriphClkInit->PLLSAI.PLLSAIR));
 626:Drivers/STM32F7xx_HAL_Driver/Src/stm32f7xx_hal_rcc_ex.c ****       assert_param(IS_RCC_PLLSAI_DIVR_VALUE(PeriphClkInit->PLLSAIDivR));
 627:Drivers/STM32F7xx_HAL_Driver/Src/stm32f7xx_hal_rcc_ex.c **** 
 628:Drivers/STM32F7xx_HAL_Driver/Src/stm32f7xx_hal_rcc_ex.c ****       /* Read PLLSAIP and PLLSAIQ value from PLLSAICFGR register (these value are not needed for LT
 629:Drivers/STM32F7xx_HAL_Driver/Src/stm32f7xx_hal_rcc_ex.c ****       tmpreg0 = ((RCC->PLLSAICFGR & RCC_PLLSAICFGR_PLLSAIQ) >> RCC_PLLSAICFGR_PLLSAIQ_Pos);
 630:Drivers/STM32F7xx_HAL_Driver/Src/stm32f7xx_hal_rcc_ex.c ****       tmpreg1 = ((RCC->PLLSAICFGR & RCC_PLLSAICFGR_PLLSAIP) >> RCC_PLLSAICFGR_PLLSAIP_Pos);
 631:Drivers/STM32F7xx_HAL_Driver/Src/stm32f7xx_hal_rcc_ex.c **** 
 632:Drivers/STM32F7xx_HAL_Driver/Src/stm32f7xx_hal_rcc_ex.c ****       /* PLLSAI_VCO Input  = PLL_SOURCE/PLLM */
 633:Drivers/STM32F7xx_HAL_Driver/Src/stm32f7xx_hal_rcc_ex.c ****       /* PLLSAI_VCO Output = PLLSAI_VCO Input * PLLSAIN */
 634:Drivers/STM32F7xx_HAL_Driver/Src/stm32f7xx_hal_rcc_ex.c ****       /* LTDC_CLK(first level) = PLLSAI_VCO Output/PLLSAIR */
ARM GAS  /tmp/ccLEMPDN.s 			page 29


 635:Drivers/STM32F7xx_HAL_Driver/Src/stm32f7xx_hal_rcc_ex.c ****       __HAL_RCC_PLLSAI_CONFIG(PeriphClkInit->PLLSAI.PLLSAIN , tmpreg1, tmpreg0, PeriphClkInit->PLLS
 636:Drivers/STM32F7xx_HAL_Driver/Src/stm32f7xx_hal_rcc_ex.c **** 
 637:Drivers/STM32F7xx_HAL_Driver/Src/stm32f7xx_hal_rcc_ex.c ****       /* LTDC_CLK = LTDC_CLK(first level)/PLLSAIDIVR */
 638:Drivers/STM32F7xx_HAL_Driver/Src/stm32f7xx_hal_rcc_ex.c ****       __HAL_RCC_PLLSAI_PLLSAICLKDIVR_CONFIG(PeriphClkInit->PLLSAIDivR);
 639:Drivers/STM32F7xx_HAL_Driver/Src/stm32f7xx_hal_rcc_ex.c ****     }
 640:Drivers/STM32F7xx_HAL_Driver/Src/stm32f7xx_hal_rcc_ex.c **** #endif /* STM32F746xx || STM32F756xx || STM32F767xx || STM32F769xx || STM32F777xx || STM32F779xx ||
 641:Drivers/STM32F7xx_HAL_Driver/Src/stm32f7xx_hal_rcc_ex.c **** 
 642:Drivers/STM32F7xx_HAL_Driver/Src/stm32f7xx_hal_rcc_ex.c ****     /* Enable PLLSAI Clock */
 643:Drivers/STM32F7xx_HAL_Driver/Src/stm32f7xx_hal_rcc_ex.c ****     __HAL_RCC_PLLSAI_ENABLE();
 644:Drivers/STM32F7xx_HAL_Driver/Src/stm32f7xx_hal_rcc_ex.c **** 
 645:Drivers/STM32F7xx_HAL_Driver/Src/stm32f7xx_hal_rcc_ex.c ****     /* Get Start Tick*/
 646:Drivers/STM32F7xx_HAL_Driver/Src/stm32f7xx_hal_rcc_ex.c ****     tickstart = HAL_GetTick();
 647:Drivers/STM32F7xx_HAL_Driver/Src/stm32f7xx_hal_rcc_ex.c **** 
 648:Drivers/STM32F7xx_HAL_Driver/Src/stm32f7xx_hal_rcc_ex.c ****     /* Wait till PLLSAI is ready */
 649:Drivers/STM32F7xx_HAL_Driver/Src/stm32f7xx_hal_rcc_ex.c ****     while(__HAL_RCC_PLLSAI_GET_FLAG() == RESET)
 650:Drivers/STM32F7xx_HAL_Driver/Src/stm32f7xx_hal_rcc_ex.c ****     {
 651:Drivers/STM32F7xx_HAL_Driver/Src/stm32f7xx_hal_rcc_ex.c ****       if((HAL_GetTick() - tickstart) > PLLSAI_TIMEOUT_VALUE)
 652:Drivers/STM32F7xx_HAL_Driver/Src/stm32f7xx_hal_rcc_ex.c ****       {
 653:Drivers/STM32F7xx_HAL_Driver/Src/stm32f7xx_hal_rcc_ex.c ****         /* return in case of Timeout detected */
 654:Drivers/STM32F7xx_HAL_Driver/Src/stm32f7xx_hal_rcc_ex.c ****         return HAL_TIMEOUT;
 655:Drivers/STM32F7xx_HAL_Driver/Src/stm32f7xx_hal_rcc_ex.c ****       }
 656:Drivers/STM32F7xx_HAL_Driver/Src/stm32f7xx_hal_rcc_ex.c ****     }
 657:Drivers/STM32F7xx_HAL_Driver/Src/stm32f7xx_hal_rcc_ex.c ****   }
 658:Drivers/STM32F7xx_HAL_Driver/Src/stm32f7xx_hal_rcc_ex.c ****   return HAL_OK;
 897              		.loc 1 658 10 view .LVU304
 898 04d4 0020     		movs	r0, #0
 899              	.LVL53:
 900              	.L10:
 659:Drivers/STM32F7xx_HAL_Driver/Src/stm32f7xx_hal_rcc_ex.c **** }
 901              		.loc 1 659 1 view .LVU305
 902 04d6 03B0     		add	sp, sp, #12
 903              	.LCFI2:
 904              		.cfi_remember_state
 905              		.cfi_def_cfa_offset 20
 906              		@ sp needed
 907 04d8 F0BD     		pop	{r4, r5, r6, r7, pc}
 908              	.LVL54:
 909              	.L83:
 910              	.LCFI3:
 911              		.cfi_restore_state
 566:Drivers/STM32F7xx_HAL_Driver/Src/stm32f7xx_hal_rcc_ex.c **** 
 912              		.loc 1 566 5 is_stmt 1 view .LVU306
 913 04da 444A     		ldr	r2, .L89
 914 04dc 1368     		ldr	r3, [r2]
 915 04de 23F08053 		bic	r3, r3, #268435456
 916 04e2 1360     		str	r3, [r2]
 569:Drivers/STM32F7xx_HAL_Driver/Src/stm32f7xx_hal_rcc_ex.c **** 
 917              		.loc 1 569 5 view .LVU307
 569:Drivers/STM32F7xx_HAL_Driver/Src/stm32f7xx_hal_rcc_ex.c **** 
 918              		.loc 1 569 17 is_stmt 0 view .LVU308
 919 04e4 FFF7FEFF 		bl	HAL_GetTick
 920              	.LVL55:
 921 04e8 0546     		mov	r5, r0
 922              	.LVL56:
 572:Drivers/STM32F7xx_HAL_Driver/Src/stm32f7xx_hal_rcc_ex.c ****     {
 923              		.loc 1 572 5 is_stmt 1 view .LVU309
 924              	.L50:
ARM GAS  /tmp/ccLEMPDN.s 			page 30


 572:Drivers/STM32F7xx_HAL_Driver/Src/stm32f7xx_hal_rcc_ex.c ****     {
 925              		.loc 1 572 10 view .LVU310
 572:Drivers/STM32F7xx_HAL_Driver/Src/stm32f7xx_hal_rcc_ex.c ****     {
 926              		.loc 1 572 11 is_stmt 0 view .LVU311
 927 04ea 404B     		ldr	r3, .L89
 928 04ec 1B68     		ldr	r3, [r3]
 572:Drivers/STM32F7xx_HAL_Driver/Src/stm32f7xx_hal_rcc_ex.c ****     {
 929              		.loc 1 572 10 view .LVU312
 930 04ee 13F0005F 		tst	r3, #536870912
 931 04f2 06D0     		beq	.L84
 574:Drivers/STM32F7xx_HAL_Driver/Src/stm32f7xx_hal_rcc_ex.c ****       {
 932              		.loc 1 574 7 is_stmt 1 view .LVU313
 574:Drivers/STM32F7xx_HAL_Driver/Src/stm32f7xx_hal_rcc_ex.c ****       {
 933              		.loc 1 574 11 is_stmt 0 view .LVU314
 934 04f4 FFF7FEFF 		bl	HAL_GetTick
 935              	.LVL57:
 574:Drivers/STM32F7xx_HAL_Driver/Src/stm32f7xx_hal_rcc_ex.c ****       {
 936              		.loc 1 574 25 view .LVU315
 937 04f8 401B     		subs	r0, r0, r5
 574:Drivers/STM32F7xx_HAL_Driver/Src/stm32f7xx_hal_rcc_ex.c ****       {
 938              		.loc 1 574 9 view .LVU316
 939 04fa 6428     		cmp	r0, #100
 940 04fc F5D9     		bls	.L50
 577:Drivers/STM32F7xx_HAL_Driver/Src/stm32f7xx_hal_rcc_ex.c ****       }
 941              		.loc 1 577 16 view .LVU317
 942 04fe 0320     		movs	r0, #3
 943 0500 E9E7     		b	.L10
 944              	.L84:
 582:Drivers/STM32F7xx_HAL_Driver/Src/stm32f7xx_hal_rcc_ex.c **** 
 945              		.loc 1 582 5 is_stmt 1 view .LVU318
 585:Drivers/STM32F7xx_HAL_Driver/Src/stm32f7xx_hal_rcc_ex.c ****        ((((PeriphClkInit->PeriphClockSelection) & RCC_PERIPHCLK_SAI2) == RCC_PERIPHCLK_SAI2) && (Pe
 946              		.loc 1 585 5 view .LVU319
 585:Drivers/STM32F7xx_HAL_Driver/Src/stm32f7xx_hal_rcc_ex.c ****        ((((PeriphClkInit->PeriphClockSelection) & RCC_PERIPHCLK_SAI2) == RCC_PERIPHCLK_SAI2) && (Pe
 947              		.loc 1 585 25 is_stmt 0 view .LVU320
 948 0502 2368     		ldr	r3, [r4]
 585:Drivers/STM32F7xx_HAL_Driver/Src/stm32f7xx_hal_rcc_ex.c ****        ((((PeriphClkInit->PeriphClockSelection) & RCC_PERIPHCLK_SAI2) == RCC_PERIPHCLK_SAI2) && (Pe
 949              		.loc 1 585 7 view .LVU321
 950 0504 13F4002F 		tst	r3, #524288
 951 0508 01D0     		beq	.L52
 585:Drivers/STM32F7xx_HAL_Driver/Src/stm32f7xx_hal_rcc_ex.c ****        ((((PeriphClkInit->PeriphClockSelection) & RCC_PERIPHCLK_SAI2) == RCC_PERIPHCLK_SAI2) && (Pe
 952              		.loc 1 585 111 discriminator 1 view .LVU322
 953 050a E26B     		ldr	r2, [r4, #60]
 585:Drivers/STM32F7xx_HAL_Driver/Src/stm32f7xx_hal_rcc_ex.c ****        ((((PeriphClkInit->PeriphClockSelection) & RCC_PERIPHCLK_SAI2) == RCC_PERIPHCLK_SAI2) && (Pe
 954              		.loc 1 585 94 discriminator 1 view .LVU323
 955 050c 22B1     		cbz	r2, .L53
 956              	.L52:
 585:Drivers/STM32F7xx_HAL_Driver/Src/stm32f7xx_hal_rcc_ex.c ****        ((((PeriphClkInit->PeriphClockSelection) & RCC_PERIPHCLK_SAI2) == RCC_PERIPHCLK_SAI2) && (Pe
 957              		.loc 1 585 162 discriminator 3 view .LVU324
 958 050e 13F4801F 		tst	r3, #1048576
 959 0512 1DD0     		beq	.L54
 586:Drivers/STM32F7xx_HAL_Driver/Src/stm32f7xx_hal_rcc_ex.c ****     {
 960              		.loc 1 586 111 view .LVU325
 961 0514 236C     		ldr	r3, [r4, #64]
 586:Drivers/STM32F7xx_HAL_Driver/Src/stm32f7xx_hal_rcc_ex.c ****     {
 962              		.loc 1 586 94 view .LVU326
 963 0516 DBB9     		cbnz	r3, .L54
 964              	.L53:
ARM GAS  /tmp/ccLEMPDN.s 			page 31


 589:Drivers/STM32F7xx_HAL_Driver/Src/stm32f7xx_hal_rcc_ex.c ****       /* check for PLLSAI/DIVQ Parameter */
 965              		.loc 1 589 7 is_stmt 1 view .LVU327
 591:Drivers/STM32F7xx_HAL_Driver/Src/stm32f7xx_hal_rcc_ex.c **** 
 966              		.loc 1 591 7 view .LVU328
 594:Drivers/STM32F7xx_HAL_Driver/Src/stm32f7xx_hal_rcc_ex.c ****       tmpreg1 = ((RCC->PLLSAICFGR & RCC_PLLI2SCFGR_PLLI2SR) >> RCC_PLLSAICFGR_PLLSAIR_Pos);
 967              		.loc 1 594 7 view .LVU329
 594:Drivers/STM32F7xx_HAL_Driver/Src/stm32f7xx_hal_rcc_ex.c ****       tmpreg1 = ((RCC->PLLSAICFGR & RCC_PLLI2SCFGR_PLLI2SR) >> RCC_PLLSAICFGR_PLLSAIR_Pos);
 968              		.loc 1 594 22 is_stmt 0 view .LVU330
 969 0518 344A     		ldr	r2, .L89
 970 051a D2F88830 		ldr	r3, [r2, #136]
 971              	.LVL58:
 595:Drivers/STM32F7xx_HAL_Driver/Src/stm32f7xx_hal_rcc_ex.c ****       /* PLLSAI_VCO Input  = PLL_SOURCE/PLLM */
 972              		.loc 1 595 7 is_stmt 1 view .LVU331
 595:Drivers/STM32F7xx_HAL_Driver/Src/stm32f7xx_hal_rcc_ex.c ****       /* PLLSAI_VCO Input  = PLL_SOURCE/PLLM */
 973              		.loc 1 595 22 is_stmt 0 view .LVU332
 974 051e D2F88810 		ldr	r1, [r2, #136]
 975              	.LVL59:
 599:Drivers/STM32F7xx_HAL_Driver/Src/stm32f7xx_hal_rcc_ex.c **** 
 976              		.loc 1 599 7 is_stmt 1 view .LVU333
 977 0522 6069     		ldr	r0, [r4, #20]
 978 0524 03F44033 		and	r3, r3, #196608
 979              	.LVL60:
 599:Drivers/STM32F7xx_HAL_Driver/Src/stm32f7xx_hal_rcc_ex.c **** 
 980              		.loc 1 599 7 is_stmt 0 view .LVU334
 981 0528 43EA8013 		orr	r3, r3, r0, lsl #6
 982 052c A069     		ldr	r0, [r4, #24]
 983 052e 43EA0063 		orr	r3, r3, r0, lsl #24
 984 0532 01F0E041 		and	r1, r1, #1879048192
 985              	.LVL61:
 599:Drivers/STM32F7xx_HAL_Driver/Src/stm32f7xx_hal_rcc_ex.c **** 
 986              		.loc 1 599 7 view .LVU335
 987 0536 0B43     		orrs	r3, r3, r1
 988 0538 C2F88830 		str	r3, [r2, #136]
 602:Drivers/STM32F7xx_HAL_Driver/Src/stm32f7xx_hal_rcc_ex.c ****     }
 989              		.loc 1 602 7 is_stmt 1 view .LVU336
 990 053c D2F88C30 		ldr	r3, [r2, #140]
 991 0540 23F4F853 		bic	r3, r3, #7936
 992 0544 A16A     		ldr	r1, [r4, #40]
 993 0546 0139     		subs	r1, r1, #1
 994 0548 43EA0123 		orr	r3, r3, r1, lsl #8
 995 054c C2F88C30 		str	r3, [r2, #140]
 996              	.L54:
 607:Drivers/STM32F7xx_HAL_Driver/Src/stm32f7xx_hal_rcc_ex.c ****     {
 997              		.loc 1 607 5 view .LVU337
 607:Drivers/STM32F7xx_HAL_Driver/Src/stm32f7xx_hal_rcc_ex.c ****     {
 998              		.loc 1 607 24 is_stmt 0 view .LVU338
 999 0550 2368     		ldr	r3, [r4]
 607:Drivers/STM32F7xx_HAL_Driver/Src/stm32f7xx_hal_rcc_ex.c ****     {
 1000              		.loc 1 607 7 view .LVU339
 1001 0552 13F4001F 		tst	r3, #2097152
 1002 0556 03D0     		beq	.L55
 607:Drivers/STM32F7xx_HAL_Driver/Src/stm32f7xx_hal_rcc_ex.c ****     {
 1003              		.loc 1 607 112 discriminator 1 view .LVU340
 1004 0558 E36F     		ldr	r3, [r4, #124]
 607:Drivers/STM32F7xx_HAL_Driver/Src/stm32f7xx_hal_rcc_ex.c ****     {
 1005              		.loc 1 607 95 discriminator 1 view .LVU341
 1006 055a B3F1006F 		cmp	r3, #134217728
ARM GAS  /tmp/ccLEMPDN.s 			page 32


 1007 055e 31D0     		beq	.L85
 1008              	.LVL62:
 1009              	.L55:
 623:Drivers/STM32F7xx_HAL_Driver/Src/stm32f7xx_hal_rcc_ex.c ****     {
 1010              		.loc 1 623 5 is_stmt 1 view .LVU342
 623:Drivers/STM32F7xx_HAL_Driver/Src/stm32f7xx_hal_rcc_ex.c ****     {
 1011              		.loc 1 623 23 is_stmt 0 view .LVU343
 1012 0560 2368     		ldr	r3, [r4]
 623:Drivers/STM32F7xx_HAL_Driver/Src/stm32f7xx_hal_rcc_ex.c ****     {
 1013              		.loc 1 623 7 view .LVU344
 1014 0562 13F0080F 		tst	r3, #8
 1015 0566 19D0     		beq	.L56
 625:Drivers/STM32F7xx_HAL_Driver/Src/stm32f7xx_hal_rcc_ex.c ****       assert_param(IS_RCC_PLLSAI_DIVR_VALUE(PeriphClkInit->PLLSAIDivR));
 1016              		.loc 1 625 7 is_stmt 1 view .LVU345
 626:Drivers/STM32F7xx_HAL_Driver/Src/stm32f7xx_hal_rcc_ex.c **** 
 1017              		.loc 1 626 7 view .LVU346
 629:Drivers/STM32F7xx_HAL_Driver/Src/stm32f7xx_hal_rcc_ex.c ****       tmpreg1 = ((RCC->PLLSAICFGR & RCC_PLLSAICFGR_PLLSAIP) >> RCC_PLLSAICFGR_PLLSAIP_Pos);
 1018              		.loc 1 629 7 view .LVU347
 629:Drivers/STM32F7xx_HAL_Driver/Src/stm32f7xx_hal_rcc_ex.c ****       tmpreg1 = ((RCC->PLLSAICFGR & RCC_PLLSAICFGR_PLLSAIP) >> RCC_PLLSAICFGR_PLLSAIP_Pos);
 1019              		.loc 1 629 22 is_stmt 0 view .LVU348
 1020 0568 204A     		ldr	r2, .L89
 1021 056a D2F88810 		ldr	r1, [r2, #136]
 1022              	.LVL63:
 630:Drivers/STM32F7xx_HAL_Driver/Src/stm32f7xx_hal_rcc_ex.c **** 
 1023              		.loc 1 630 7 is_stmt 1 view .LVU349
 630:Drivers/STM32F7xx_HAL_Driver/Src/stm32f7xx_hal_rcc_ex.c **** 
 1024              		.loc 1 630 22 is_stmt 0 view .LVU350
 1025 056e D2F88830 		ldr	r3, [r2, #136]
 1026              	.LVL64:
 635:Drivers/STM32F7xx_HAL_Driver/Src/stm32f7xx_hal_rcc_ex.c **** 
 1027              		.loc 1 635 7 is_stmt 1 view .LVU351
 1028 0572 6069     		ldr	r0, [r4, #20]
 1029 0574 03F44033 		and	r3, r3, #196608
 1030              	.LVL65:
 635:Drivers/STM32F7xx_HAL_Driver/Src/stm32f7xx_hal_rcc_ex.c **** 
 1031              		.loc 1 635 7 is_stmt 0 view .LVU352
 1032 0578 43EA8013 		orr	r3, r3, r0, lsl #6
 1033 057c 01F07061 		and	r1, r1, #251658240
 1034              	.LVL66:
 635:Drivers/STM32F7xx_HAL_Driver/Src/stm32f7xx_hal_rcc_ex.c **** 
 1035              		.loc 1 635 7 view .LVU353
 1036 0580 0B43     		orrs	r3, r3, r1
 1037 0582 E169     		ldr	r1, [r4, #28]
 1038 0584 43EA0173 		orr	r3, r3, r1, lsl #28
 1039 0588 C2F88830 		str	r3, [r2, #136]
 638:Drivers/STM32F7xx_HAL_Driver/Src/stm32f7xx_hal_rcc_ex.c ****     }
 1040              		.loc 1 638 7 is_stmt 1 view .LVU354
 1041 058c D2F88C30 		ldr	r3, [r2, #140]
 1042 0590 23F44033 		bic	r3, r3, #196608
 1043 0594 E16A     		ldr	r1, [r4, #44]
 1044 0596 0B43     		orrs	r3, r3, r1
 1045 0598 C2F88C30 		str	r3, [r2, #140]
 1046              	.L56:
 643:Drivers/STM32F7xx_HAL_Driver/Src/stm32f7xx_hal_rcc_ex.c **** 
 1047              		.loc 1 643 5 view .LVU355
 1048 059c 134A     		ldr	r2, .L89
 1049 059e 1368     		ldr	r3, [r2]
ARM GAS  /tmp/ccLEMPDN.s 			page 33


 1050 05a0 43F08053 		orr	r3, r3, #268435456
 1051 05a4 1360     		str	r3, [r2]
 646:Drivers/STM32F7xx_HAL_Driver/Src/stm32f7xx_hal_rcc_ex.c **** 
 1052              		.loc 1 646 5 view .LVU356
 646:Drivers/STM32F7xx_HAL_Driver/Src/stm32f7xx_hal_rcc_ex.c **** 
 1053              		.loc 1 646 17 is_stmt 0 view .LVU357
 1054 05a6 FFF7FEFF 		bl	HAL_GetTick
 1055              	.LVL67:
 1056 05aa 0446     		mov	r4, r0
 1057              	.LVL68:
 649:Drivers/STM32F7xx_HAL_Driver/Src/stm32f7xx_hal_rcc_ex.c ****     {
 1058              		.loc 1 649 5 is_stmt 1 view .LVU358
 1059              	.L57:
 649:Drivers/STM32F7xx_HAL_Driver/Src/stm32f7xx_hal_rcc_ex.c ****     {
 1060              		.loc 1 649 10 view .LVU359
 649:Drivers/STM32F7xx_HAL_Driver/Src/stm32f7xx_hal_rcc_ex.c ****     {
 1061              		.loc 1 649 11 is_stmt 0 view .LVU360
 1062 05ac 0F4B     		ldr	r3, .L89
 1063 05ae 1B68     		ldr	r3, [r3]
 649:Drivers/STM32F7xx_HAL_Driver/Src/stm32f7xx_hal_rcc_ex.c ****     {
 1064              		.loc 1 649 10 view .LVU361
 1065 05b0 13F0005F 		tst	r3, #536870912
 1066 05b4 20D1     		bne	.L86
 651:Drivers/STM32F7xx_HAL_Driver/Src/stm32f7xx_hal_rcc_ex.c ****       {
 1067              		.loc 1 651 7 is_stmt 1 view .LVU362
 651:Drivers/STM32F7xx_HAL_Driver/Src/stm32f7xx_hal_rcc_ex.c ****       {
 1068              		.loc 1 651 11 is_stmt 0 view .LVU363
 1069 05b6 FFF7FEFF 		bl	HAL_GetTick
 1070              	.LVL69:
 651:Drivers/STM32F7xx_HAL_Driver/Src/stm32f7xx_hal_rcc_ex.c ****       {
 1071              		.loc 1 651 25 view .LVU364
 1072 05ba 001B     		subs	r0, r0, r4
 651:Drivers/STM32F7xx_HAL_Driver/Src/stm32f7xx_hal_rcc_ex.c ****       {
 1073              		.loc 1 651 9 view .LVU365
 1074 05bc 6428     		cmp	r0, #100
 1075 05be F5D9     		bls	.L57
 654:Drivers/STM32F7xx_HAL_Driver/Src/stm32f7xx_hal_rcc_ex.c ****       }
 1076              		.loc 1 654 16 view .LVU366
 1077 05c0 0320     		movs	r0, #3
 1078 05c2 88E7     		b	.L10
 1079              	.LVL70:
 1080              	.L85:
 610:Drivers/STM32F7xx_HAL_Driver/Src/stm32f7xx_hal_rcc_ex.c ****       /* Read PLLSAIQ and PLLSAIR value from PLLSAICFGR register (this value is not needed for CK48
 1081              		.loc 1 610 7 is_stmt 1 view .LVU367
 612:Drivers/STM32F7xx_HAL_Driver/Src/stm32f7xx_hal_rcc_ex.c ****       tmpreg1 = ((RCC->PLLSAICFGR & RCC_PLLSAICFGR_PLLSAIR) >> RCC_PLLSAICFGR_PLLSAIR_Pos);
 1082              		.loc 1 612 7 view .LVU368
 612:Drivers/STM32F7xx_HAL_Driver/Src/stm32f7xx_hal_rcc_ex.c ****       tmpreg1 = ((RCC->PLLSAICFGR & RCC_PLLSAICFGR_PLLSAIR) >> RCC_PLLSAICFGR_PLLSAIR_Pos);
 1083              		.loc 1 612 22 is_stmt 0 view .LVU369
 1084 05c4 094A     		ldr	r2, .L89
 1085 05c6 D2F88800 		ldr	r0, [r2, #136]
 1086              	.LVL71:
 613:Drivers/STM32F7xx_HAL_Driver/Src/stm32f7xx_hal_rcc_ex.c **** 
 1087              		.loc 1 613 7 is_stmt 1 view .LVU370
 613:Drivers/STM32F7xx_HAL_Driver/Src/stm32f7xx_hal_rcc_ex.c **** 
 1088              		.loc 1 613 22 is_stmt 0 view .LVU371
 1089 05ca D2F88810 		ldr	r1, [r2, #136]
 1090              	.LVL72:
ARM GAS  /tmp/ccLEMPDN.s 			page 34


 618:Drivers/STM32F7xx_HAL_Driver/Src/stm32f7xx_hal_rcc_ex.c ****     }
 1091              		.loc 1 618 7 is_stmt 1 view .LVU372
 1092 05ce 6569     		ldr	r5, [r4, #20]
 1093              	.LVL73:
 618:Drivers/STM32F7xx_HAL_Driver/Src/stm32f7xx_hal_rcc_ex.c ****     }
 1094              		.loc 1 618 7 is_stmt 0 view .LVU373
 1095 05d0 236A     		ldr	r3, [r4, #32]
 1096 05d2 1B04     		lsls	r3, r3, #16
 1097 05d4 43EA8513 		orr	r3, r3, r5, lsl #6
 1098 05d8 00F07060 		and	r0, r0, #251658240
 1099              	.LVL74:
 618:Drivers/STM32F7xx_HAL_Driver/Src/stm32f7xx_hal_rcc_ex.c ****     }
 1100              		.loc 1 618 7 view .LVU374
 1101 05dc 0343     		orrs	r3, r3, r0
 1102 05de 01F0E041 		and	r1, r1, #1879048192
 1103              	.LVL75:
 618:Drivers/STM32F7xx_HAL_Driver/Src/stm32f7xx_hal_rcc_ex.c ****     }
 1104              		.loc 1 618 7 view .LVU375
 1105 05e2 0B43     		orrs	r3, r3, r1
 1106 05e4 C2F88830 		str	r3, [r2, #136]
 1107 05e8 BAE7     		b	.L55
 1108              	.L90:
 1109 05ea 00BF     		.align	2
 1110              	.L89:
 1111 05ec 00380240 		.word	1073887232
 1112 05f0 00700040 		.word	1073770496
 1113 05f4 FFFCFF0F 		.word	268434687
 1114              	.LVL76:
 1115              	.L86:
 658:Drivers/STM32F7xx_HAL_Driver/Src/stm32f7xx_hal_rcc_ex.c **** }
 1116              		.loc 1 658 10 view .LVU376
 1117 05f8 0020     		movs	r0, #0
 1118 05fa 6CE7     		b	.L10
 1119              		.cfi_endproc
 1120              	.LFE141:
 1122              		.section	.text.HAL_RCCEx_GetPeriphCLKConfig,"ax",%progbits
 1123              		.align	1
 1124              		.global	HAL_RCCEx_GetPeriphCLKConfig
 1125              		.syntax unified
 1126              		.thumb
 1127              		.thumb_func
 1128              		.fpu fpv5-d16
 1130              	HAL_RCCEx_GetPeriphCLKConfig:
 1131              	.LVL77:
 1132              	.LFB142:
 660:Drivers/STM32F7xx_HAL_Driver/Src/stm32f7xx_hal_rcc_ex.c **** 
 661:Drivers/STM32F7xx_HAL_Driver/Src/stm32f7xx_hal_rcc_ex.c **** /**
 662:Drivers/STM32F7xx_HAL_Driver/Src/stm32f7xx_hal_rcc_ex.c ****   * @brief  Get the RCC_PeriphCLKInitTypeDef according to the internal
 663:Drivers/STM32F7xx_HAL_Driver/Src/stm32f7xx_hal_rcc_ex.c ****   *         RCC configuration registers.
 664:Drivers/STM32F7xx_HAL_Driver/Src/stm32f7xx_hal_rcc_ex.c ****   * @param  PeriphClkInit pointer to the configured RCC_PeriphCLKInitTypeDef structure
 665:Drivers/STM32F7xx_HAL_Driver/Src/stm32f7xx_hal_rcc_ex.c ****   * @retval None
 666:Drivers/STM32F7xx_HAL_Driver/Src/stm32f7xx_hal_rcc_ex.c ****   */
 667:Drivers/STM32F7xx_HAL_Driver/Src/stm32f7xx_hal_rcc_ex.c **** void HAL_RCCEx_GetPeriphCLKConfig(RCC_PeriphCLKInitTypeDef  *PeriphClkInit)
 668:Drivers/STM32F7xx_HAL_Driver/Src/stm32f7xx_hal_rcc_ex.c **** {
 1133              		.loc 1 668 1 is_stmt 1 view -0
 1134              		.cfi_startproc
 1135              		@ args = 0, pretend = 0, frame = 0
ARM GAS  /tmp/ccLEMPDN.s 			page 35


 1136              		@ frame_needed = 0, uses_anonymous_args = 0
 1137              		@ link register save eliminated.
 669:Drivers/STM32F7xx_HAL_Driver/Src/stm32f7xx_hal_rcc_ex.c ****   uint32_t tempreg = 0;
 1138              		.loc 1 669 3 view .LVU378
 670:Drivers/STM32F7xx_HAL_Driver/Src/stm32f7xx_hal_rcc_ex.c **** 
 671:Drivers/STM32F7xx_HAL_Driver/Src/stm32f7xx_hal_rcc_ex.c ****   /* Set all possible values for the extended clock type parameter------------*/
 672:Drivers/STM32F7xx_HAL_Driver/Src/stm32f7xx_hal_rcc_ex.c **** #if defined (STM32F765xx) || defined (STM32F767xx) || defined (STM32F769xx) || defined (STM32F777xx
 673:Drivers/STM32F7xx_HAL_Driver/Src/stm32f7xx_hal_rcc_ex.c ****   PeriphClkInit->PeriphClockSelection = RCC_PERIPHCLK_I2S      | RCC_PERIPHCLK_LPTIM1   |\
 1139              		.loc 1 673 3 view .LVU379
 1140              		.loc 1 673 39 is_stmt 0 view .LVU380
 1141 0000 5F4B     		ldr	r3, .L94
 1142 0002 0360     		str	r3, [r0]
 674:Drivers/STM32F7xx_HAL_Driver/Src/stm32f7xx_hal_rcc_ex.c ****                                         RCC_PERIPHCLK_SAI1     | RCC_PERIPHCLK_SAI2     |\
 675:Drivers/STM32F7xx_HAL_Driver/Src/stm32f7xx_hal_rcc_ex.c ****                                         RCC_PERIPHCLK_TIM      | RCC_PERIPHCLK_RTC      |\
 676:Drivers/STM32F7xx_HAL_Driver/Src/stm32f7xx_hal_rcc_ex.c ****                                         RCC_PERIPHCLK_CEC      | RCC_PERIPHCLK_I2C4     |\
 677:Drivers/STM32F7xx_HAL_Driver/Src/stm32f7xx_hal_rcc_ex.c ****                                         RCC_PERIPHCLK_I2C1     | RCC_PERIPHCLK_I2C2     |\
 678:Drivers/STM32F7xx_HAL_Driver/Src/stm32f7xx_hal_rcc_ex.c ****                                         RCC_PERIPHCLK_I2C3     | RCC_PERIPHCLK_USART1   |\
 679:Drivers/STM32F7xx_HAL_Driver/Src/stm32f7xx_hal_rcc_ex.c ****                                         RCC_PERIPHCLK_USART2   | RCC_PERIPHCLK_USART3   |\
 680:Drivers/STM32F7xx_HAL_Driver/Src/stm32f7xx_hal_rcc_ex.c ****                                         RCC_PERIPHCLK_UART4    | RCC_PERIPHCLK_UART5    |\
 681:Drivers/STM32F7xx_HAL_Driver/Src/stm32f7xx_hal_rcc_ex.c ****                                         RCC_PERIPHCLK_USART6   | RCC_PERIPHCLK_UART7    |\
 682:Drivers/STM32F7xx_HAL_Driver/Src/stm32f7xx_hal_rcc_ex.c ****                                         RCC_PERIPHCLK_UART8    | RCC_PERIPHCLK_SDMMC1   |\
 683:Drivers/STM32F7xx_HAL_Driver/Src/stm32f7xx_hal_rcc_ex.c ****                                         RCC_PERIPHCLK_CLK48    | RCC_PERIPHCLK_SDMMC2   |\
 684:Drivers/STM32F7xx_HAL_Driver/Src/stm32f7xx_hal_rcc_ex.c ****                                         RCC_PERIPHCLK_DFSDM1   | RCC_PERIPHCLK_DFSDM1_AUDIO;
 685:Drivers/STM32F7xx_HAL_Driver/Src/stm32f7xx_hal_rcc_ex.c **** #else
 686:Drivers/STM32F7xx_HAL_Driver/Src/stm32f7xx_hal_rcc_ex.c ****   PeriphClkInit->PeriphClockSelection = RCC_PERIPHCLK_I2S      | RCC_PERIPHCLK_LPTIM1   |\
 687:Drivers/STM32F7xx_HAL_Driver/Src/stm32f7xx_hal_rcc_ex.c ****                                         RCC_PERIPHCLK_SAI1     | RCC_PERIPHCLK_SAI2     |\
 688:Drivers/STM32F7xx_HAL_Driver/Src/stm32f7xx_hal_rcc_ex.c ****                                         RCC_PERIPHCLK_TIM      | RCC_PERIPHCLK_RTC      |\
 689:Drivers/STM32F7xx_HAL_Driver/Src/stm32f7xx_hal_rcc_ex.c ****                                         RCC_PERIPHCLK_CEC      | RCC_PERIPHCLK_I2C4     |\
 690:Drivers/STM32F7xx_HAL_Driver/Src/stm32f7xx_hal_rcc_ex.c ****                                         RCC_PERIPHCLK_I2C1     | RCC_PERIPHCLK_I2C2     |\
 691:Drivers/STM32F7xx_HAL_Driver/Src/stm32f7xx_hal_rcc_ex.c ****                                         RCC_PERIPHCLK_I2C3     | RCC_PERIPHCLK_USART1   |\
 692:Drivers/STM32F7xx_HAL_Driver/Src/stm32f7xx_hal_rcc_ex.c ****                                         RCC_PERIPHCLK_USART2   | RCC_PERIPHCLK_USART3   |\
 693:Drivers/STM32F7xx_HAL_Driver/Src/stm32f7xx_hal_rcc_ex.c ****                                         RCC_PERIPHCLK_UART4    | RCC_PERIPHCLK_UART5    |\
 694:Drivers/STM32F7xx_HAL_Driver/Src/stm32f7xx_hal_rcc_ex.c ****                                         RCC_PERIPHCLK_USART6   | RCC_PERIPHCLK_UART7    |\
 695:Drivers/STM32F7xx_HAL_Driver/Src/stm32f7xx_hal_rcc_ex.c ****                                         RCC_PERIPHCLK_UART8    | RCC_PERIPHCLK_SDMMC1   |\
 696:Drivers/STM32F7xx_HAL_Driver/Src/stm32f7xx_hal_rcc_ex.c ****                                         RCC_PERIPHCLK_CLK48;
 697:Drivers/STM32F7xx_HAL_Driver/Src/stm32f7xx_hal_rcc_ex.c **** #endif /* STM32F767xx || STM32F769xx || STM32F777xx || STM32F779xx */
 698:Drivers/STM32F7xx_HAL_Driver/Src/stm32f7xx_hal_rcc_ex.c **** 
 699:Drivers/STM32F7xx_HAL_Driver/Src/stm32f7xx_hal_rcc_ex.c ****   /* Get the PLLI2S Clock configuration -----------------------------------------------*/
 700:Drivers/STM32F7xx_HAL_Driver/Src/stm32f7xx_hal_rcc_ex.c ****   PeriphClkInit->PLLI2S.PLLI2SN = (uint32_t)((RCC->PLLI2SCFGR & RCC_PLLI2SCFGR_PLLI2SN) >> RCC_PLLI
 1143              		.loc 1 700 3 is_stmt 1 view .LVU381
 1144              		.loc 1 700 50 is_stmt 0 view .LVU382
 1145 0004 5F4B     		ldr	r3, .L94+4
 1146 0006 D3F88420 		ldr	r2, [r3, #132]
 1147              		.loc 1 700 35 view .LVU383
 1148 000a C2F38812 		ubfx	r2, r2, #6, #9
 1149              		.loc 1 700 33 view .LVU384
 1150 000e 4260     		str	r2, [r0, #4]
 701:Drivers/STM32F7xx_HAL_Driver/Src/stm32f7xx_hal_rcc_ex.c ****   PeriphClkInit->PLLI2S.PLLI2SP = (uint32_t)((RCC->PLLI2SCFGR & RCC_PLLI2SCFGR_PLLI2SP) >> RCC_PLLI
 1151              		.loc 1 701 3 is_stmt 1 view .LVU385
 1152              		.loc 1 701 50 is_stmt 0 view .LVU386
 1153 0010 D3F88420 		ldr	r2, [r3, #132]
 1154              		.loc 1 701 35 view .LVU387
 1155 0014 C2F30142 		ubfx	r2, r2, #16, #2
 1156              		.loc 1 701 33 view .LVU388
 1157 0018 0261     		str	r2, [r0, #16]
 702:Drivers/STM32F7xx_HAL_Driver/Src/stm32f7xx_hal_rcc_ex.c ****   PeriphClkInit->PLLI2S.PLLI2SQ = (uint32_t)((RCC->PLLI2SCFGR & RCC_PLLI2SCFGR_PLLI2SQ) >> RCC_PLLI
 1158              		.loc 1 702 3 is_stmt 1 view .LVU389
ARM GAS  /tmp/ccLEMPDN.s 			page 36


 1159              		.loc 1 702 50 is_stmt 0 view .LVU390
 1160 001a D3F88420 		ldr	r2, [r3, #132]
 1161              		.loc 1 702 35 view .LVU391
 1162 001e C2F30362 		ubfx	r2, r2, #24, #4
 1163              		.loc 1 702 33 view .LVU392
 1164 0022 C260     		str	r2, [r0, #12]
 703:Drivers/STM32F7xx_HAL_Driver/Src/stm32f7xx_hal_rcc_ex.c ****   PeriphClkInit->PLLI2S.PLLI2SR = (uint32_t)((RCC->PLLI2SCFGR & RCC_PLLI2SCFGR_PLLI2SR) >> RCC_PLLI
 1165              		.loc 1 703 3 is_stmt 1 view .LVU393
 1166              		.loc 1 703 50 is_stmt 0 view .LVU394
 1167 0024 D3F88420 		ldr	r2, [r3, #132]
 1168              		.loc 1 703 35 view .LVU395
 1169 0028 C2F30272 		ubfx	r2, r2, #28, #3
 1170              		.loc 1 703 33 view .LVU396
 1171 002c 8260     		str	r2, [r0, #8]
 704:Drivers/STM32F7xx_HAL_Driver/Src/stm32f7xx_hal_rcc_ex.c **** 
 705:Drivers/STM32F7xx_HAL_Driver/Src/stm32f7xx_hal_rcc_ex.c ****   /* Get the PLLSAI Clock configuration -----------------------------------------------*/
 706:Drivers/STM32F7xx_HAL_Driver/Src/stm32f7xx_hal_rcc_ex.c ****   PeriphClkInit->PLLSAI.PLLSAIN = (uint32_t)((RCC->PLLSAICFGR & RCC_PLLSAICFGR_PLLSAIN) >> RCC_PLLS
 1172              		.loc 1 706 3 is_stmt 1 view .LVU397
 1173              		.loc 1 706 50 is_stmt 0 view .LVU398
 1174 002e D3F88820 		ldr	r2, [r3, #136]
 1175              		.loc 1 706 35 view .LVU399
 1176 0032 C2F38812 		ubfx	r2, r2, #6, #9
 1177              		.loc 1 706 33 view .LVU400
 1178 0036 4261     		str	r2, [r0, #20]
 707:Drivers/STM32F7xx_HAL_Driver/Src/stm32f7xx_hal_rcc_ex.c ****   PeriphClkInit->PLLSAI.PLLSAIP = (uint32_t)((RCC->PLLSAICFGR & RCC_PLLSAICFGR_PLLSAIP) >> RCC_PLLS
 1179              		.loc 1 707 3 is_stmt 1 view .LVU401
 1180              		.loc 1 707 50 is_stmt 0 view .LVU402
 1181 0038 D3F88820 		ldr	r2, [r3, #136]
 1182              		.loc 1 707 35 view .LVU403
 1183 003c C2F30142 		ubfx	r2, r2, #16, #2
 1184              		.loc 1 707 33 view .LVU404
 1185 0040 0262     		str	r2, [r0, #32]
 708:Drivers/STM32F7xx_HAL_Driver/Src/stm32f7xx_hal_rcc_ex.c ****   PeriphClkInit->PLLSAI.PLLSAIQ = (uint32_t)((RCC->PLLSAICFGR & RCC_PLLSAICFGR_PLLSAIQ) >> RCC_PLLS
 1186              		.loc 1 708 3 is_stmt 1 view .LVU405
 1187              		.loc 1 708 50 is_stmt 0 view .LVU406
 1188 0042 D3F88820 		ldr	r2, [r3, #136]
 1189              		.loc 1 708 35 view .LVU407
 1190 0046 C2F30362 		ubfx	r2, r2, #24, #4
 1191              		.loc 1 708 33 view .LVU408
 1192 004a 8261     		str	r2, [r0, #24]
 709:Drivers/STM32F7xx_HAL_Driver/Src/stm32f7xx_hal_rcc_ex.c ****   PeriphClkInit->PLLSAI.PLLSAIR = (uint32_t)((RCC->PLLSAICFGR & RCC_PLLSAICFGR_PLLSAIR) >> RCC_PLLS
 1193              		.loc 1 709 3 is_stmt 1 view .LVU409
 1194              		.loc 1 709 50 is_stmt 0 view .LVU410
 1195 004c D3F88820 		ldr	r2, [r3, #136]
 1196              		.loc 1 709 35 view .LVU411
 1197 0050 C2F30272 		ubfx	r2, r2, #28, #3
 1198              		.loc 1 709 33 view .LVU412
 1199 0054 C261     		str	r2, [r0, #28]
 710:Drivers/STM32F7xx_HAL_Driver/Src/stm32f7xx_hal_rcc_ex.c **** 
 711:Drivers/STM32F7xx_HAL_Driver/Src/stm32f7xx_hal_rcc_ex.c ****   /* Get the PLLSAI/PLLI2S division factors -------------------------------------------*/
 712:Drivers/STM32F7xx_HAL_Driver/Src/stm32f7xx_hal_rcc_ex.c ****   PeriphClkInit->PLLI2SDivQ = (uint32_t)((RCC->DCKCFGR1 & RCC_DCKCFGR1_PLLI2SDIVQ) >> RCC_DCKCFGR1_
 1200              		.loc 1 712 3 is_stmt 1 view .LVU413
 1201              		.loc 1 712 46 is_stmt 0 view .LVU414
 1202 0056 D3F88C20 		ldr	r2, [r3, #140]
 1203              		.loc 1 712 31 view .LVU415
 1204 005a 02F01F02 		and	r2, r2, #31
 1205              		.loc 1 712 29 view .LVU416
ARM GAS  /tmp/ccLEMPDN.s 			page 37


 1206 005e 4262     		str	r2, [r0, #36]
 713:Drivers/STM32F7xx_HAL_Driver/Src/stm32f7xx_hal_rcc_ex.c ****   PeriphClkInit->PLLSAIDivQ = (uint32_t)((RCC->DCKCFGR1 & RCC_DCKCFGR1_PLLSAIDIVQ) >> RCC_DCKCFGR1_
 1207              		.loc 1 713 3 is_stmt 1 view .LVU417
 1208              		.loc 1 713 46 is_stmt 0 view .LVU418
 1209 0060 D3F88C20 		ldr	r2, [r3, #140]
 1210              		.loc 1 713 31 view .LVU419
 1211 0064 C2F30422 		ubfx	r2, r2, #8, #5
 1212              		.loc 1 713 29 view .LVU420
 1213 0068 8262     		str	r2, [r0, #40]
 714:Drivers/STM32F7xx_HAL_Driver/Src/stm32f7xx_hal_rcc_ex.c ****   PeriphClkInit->PLLSAIDivR = (uint32_t)((RCC->DCKCFGR1 & RCC_DCKCFGR1_PLLSAIDIVR) >> RCC_DCKCFGR1_
 1214              		.loc 1 714 3 is_stmt 1 view .LVU421
 1215              		.loc 1 714 46 is_stmt 0 view .LVU422
 1216 006a D3F88C20 		ldr	r2, [r3, #140]
 1217              		.loc 1 714 31 view .LVU423
 1218 006e C2F30142 		ubfx	r2, r2, #16, #2
 1219              		.loc 1 714 29 view .LVU424
 1220 0072 C262     		str	r2, [r0, #44]
 715:Drivers/STM32F7xx_HAL_Driver/Src/stm32f7xx_hal_rcc_ex.c **** 
 716:Drivers/STM32F7xx_HAL_Driver/Src/stm32f7xx_hal_rcc_ex.c ****   /* Get the SAI1 clock configuration ----------------------------------------------*/
 717:Drivers/STM32F7xx_HAL_Driver/Src/stm32f7xx_hal_rcc_ex.c ****   PeriphClkInit->Sai1ClockSelection = __HAL_RCC_GET_SAI1_SOURCE();
 1221              		.loc 1 717 3 is_stmt 1 view .LVU425
 1222              		.loc 1 717 39 is_stmt 0 view .LVU426
 1223 0074 D3F88C20 		ldr	r2, [r3, #140]
 1224 0078 02F44012 		and	r2, r2, #3145728
 1225              		.loc 1 717 37 view .LVU427
 1226 007c C263     		str	r2, [r0, #60]
 718:Drivers/STM32F7xx_HAL_Driver/Src/stm32f7xx_hal_rcc_ex.c **** 
 719:Drivers/STM32F7xx_HAL_Driver/Src/stm32f7xx_hal_rcc_ex.c ****   /* Get the SAI2 clock configuration ----------------------------------------------*/
 720:Drivers/STM32F7xx_HAL_Driver/Src/stm32f7xx_hal_rcc_ex.c ****   PeriphClkInit->Sai2ClockSelection = __HAL_RCC_GET_SAI2_SOURCE();
 1227              		.loc 1 720 3 is_stmt 1 view .LVU428
 1228              		.loc 1 720 39 is_stmt 0 view .LVU429
 1229 007e D3F88C20 		ldr	r2, [r3, #140]
 1230 0082 02F44002 		and	r2, r2, #12582912
 1231              		.loc 1 720 37 view .LVU430
 1232 0086 0264     		str	r2, [r0, #64]
 721:Drivers/STM32F7xx_HAL_Driver/Src/stm32f7xx_hal_rcc_ex.c **** 
 722:Drivers/STM32F7xx_HAL_Driver/Src/stm32f7xx_hal_rcc_ex.c ****   /* Get the I2S clock configuration ------------------------------------------*/
 723:Drivers/STM32F7xx_HAL_Driver/Src/stm32f7xx_hal_rcc_ex.c ****   PeriphClkInit->I2sClockSelection = __HAL_RCC_GET_I2SCLKSOURCE();
 1233              		.loc 1 723 3 is_stmt 1 view .LVU431
 1234              		.loc 1 723 38 is_stmt 0 view .LVU432
 1235 0088 9A68     		ldr	r2, [r3, #8]
 1236 008a 02F40002 		and	r2, r2, #8388608
 1237              		.loc 1 723 36 view .LVU433
 1238 008e 4263     		str	r2, [r0, #52]
 724:Drivers/STM32F7xx_HAL_Driver/Src/stm32f7xx_hal_rcc_ex.c **** 
 725:Drivers/STM32F7xx_HAL_Driver/Src/stm32f7xx_hal_rcc_ex.c ****   /* Get the I2C1 clock configuration ------------------------------------------*/
 726:Drivers/STM32F7xx_HAL_Driver/Src/stm32f7xx_hal_rcc_ex.c ****   PeriphClkInit->I2c1ClockSelection = __HAL_RCC_GET_I2C1_SOURCE();
 1239              		.loc 1 726 3 is_stmt 1 view .LVU434
 1240              		.loc 1 726 39 is_stmt 0 view .LVU435
 1241 0090 D3F89020 		ldr	r2, [r3, #144]
 1242 0094 02F44032 		and	r2, r2, #196608
 1243              		.loc 1 726 37 view .LVU436
 1244 0098 4266     		str	r2, [r0, #100]
 727:Drivers/STM32F7xx_HAL_Driver/Src/stm32f7xx_hal_rcc_ex.c **** 
 728:Drivers/STM32F7xx_HAL_Driver/Src/stm32f7xx_hal_rcc_ex.c ****   /* Get the I2C2 clock configuration ------------------------------------------*/
 729:Drivers/STM32F7xx_HAL_Driver/Src/stm32f7xx_hal_rcc_ex.c ****   PeriphClkInit->I2c2ClockSelection = __HAL_RCC_GET_I2C2_SOURCE();
 1245              		.loc 1 729 3 is_stmt 1 view .LVU437
ARM GAS  /tmp/ccLEMPDN.s 			page 38


 1246              		.loc 1 729 39 is_stmt 0 view .LVU438
 1247 009a D3F89020 		ldr	r2, [r3, #144]
 1248 009e 02F44022 		and	r2, r2, #786432
 1249              		.loc 1 729 37 view .LVU439
 1250 00a2 8266     		str	r2, [r0, #104]
 730:Drivers/STM32F7xx_HAL_Driver/Src/stm32f7xx_hal_rcc_ex.c **** 
 731:Drivers/STM32F7xx_HAL_Driver/Src/stm32f7xx_hal_rcc_ex.c ****   /* Get the I2C3 clock configuration ------------------------------------------*/
 732:Drivers/STM32F7xx_HAL_Driver/Src/stm32f7xx_hal_rcc_ex.c ****   PeriphClkInit->I2c3ClockSelection = __HAL_RCC_GET_I2C3_SOURCE();
 1251              		.loc 1 732 3 is_stmt 1 view .LVU440
 1252              		.loc 1 732 39 is_stmt 0 view .LVU441
 1253 00a4 D3F89020 		ldr	r2, [r3, #144]
 1254 00a8 02F44012 		and	r2, r2, #3145728
 1255              		.loc 1 732 37 view .LVU442
 1256 00ac C266     		str	r2, [r0, #108]
 733:Drivers/STM32F7xx_HAL_Driver/Src/stm32f7xx_hal_rcc_ex.c **** 
 734:Drivers/STM32F7xx_HAL_Driver/Src/stm32f7xx_hal_rcc_ex.c ****   /* Get the I2C4 clock configuration ------------------------------------------*/
 735:Drivers/STM32F7xx_HAL_Driver/Src/stm32f7xx_hal_rcc_ex.c ****   PeriphClkInit->I2c4ClockSelection = __HAL_RCC_GET_I2C4_SOURCE();
 1257              		.loc 1 735 3 is_stmt 1 view .LVU443
 1258              		.loc 1 735 39 is_stmt 0 view .LVU444
 1259 00ae D3F89020 		ldr	r2, [r3, #144]
 1260 00b2 02F44002 		and	r2, r2, #12582912
 1261              		.loc 1 735 37 view .LVU445
 1262 00b6 0267     		str	r2, [r0, #112]
 736:Drivers/STM32F7xx_HAL_Driver/Src/stm32f7xx_hal_rcc_ex.c **** 
 737:Drivers/STM32F7xx_HAL_Driver/Src/stm32f7xx_hal_rcc_ex.c ****   /* Get the USART1 clock configuration ------------------------------------------*/
 738:Drivers/STM32F7xx_HAL_Driver/Src/stm32f7xx_hal_rcc_ex.c ****   PeriphClkInit->Usart1ClockSelection = __HAL_RCC_GET_USART1_SOURCE();
 1263              		.loc 1 738 3 is_stmt 1 view .LVU446
 1264              		.loc 1 738 41 is_stmt 0 view .LVU447
 1265 00b8 D3F89020 		ldr	r2, [r3, #144]
 1266 00bc 02F00302 		and	r2, r2, #3
 1267              		.loc 1 738 39 view .LVU448
 1268 00c0 4264     		str	r2, [r0, #68]
 739:Drivers/STM32F7xx_HAL_Driver/Src/stm32f7xx_hal_rcc_ex.c **** 
 740:Drivers/STM32F7xx_HAL_Driver/Src/stm32f7xx_hal_rcc_ex.c ****   /* Get the USART2 clock configuration ------------------------------------------*/
 741:Drivers/STM32F7xx_HAL_Driver/Src/stm32f7xx_hal_rcc_ex.c ****   PeriphClkInit->Usart2ClockSelection = __HAL_RCC_GET_USART2_SOURCE();
 1269              		.loc 1 741 3 is_stmt 1 view .LVU449
 1270              		.loc 1 741 41 is_stmt 0 view .LVU450
 1271 00c2 D3F89020 		ldr	r2, [r3, #144]
 1272 00c6 02F00C02 		and	r2, r2, #12
 1273              		.loc 1 741 39 view .LVU451
 1274 00ca 8264     		str	r2, [r0, #72]
 742:Drivers/STM32F7xx_HAL_Driver/Src/stm32f7xx_hal_rcc_ex.c **** 
 743:Drivers/STM32F7xx_HAL_Driver/Src/stm32f7xx_hal_rcc_ex.c ****   /* Get the USART3 clock configuration ------------------------------------------*/
 744:Drivers/STM32F7xx_HAL_Driver/Src/stm32f7xx_hal_rcc_ex.c ****   PeriphClkInit->Usart3ClockSelection = __HAL_RCC_GET_USART3_SOURCE();
 1275              		.loc 1 744 3 is_stmt 1 view .LVU452
 1276              		.loc 1 744 41 is_stmt 0 view .LVU453
 1277 00cc D3F89020 		ldr	r2, [r3, #144]
 1278 00d0 02F03002 		and	r2, r2, #48
 1279              		.loc 1 744 39 view .LVU454
 1280 00d4 C264     		str	r2, [r0, #76]
 745:Drivers/STM32F7xx_HAL_Driver/Src/stm32f7xx_hal_rcc_ex.c **** 
 746:Drivers/STM32F7xx_HAL_Driver/Src/stm32f7xx_hal_rcc_ex.c ****   /* Get the UART4 clock configuration ------------------------------------------*/
 747:Drivers/STM32F7xx_HAL_Driver/Src/stm32f7xx_hal_rcc_ex.c ****   PeriphClkInit->Uart4ClockSelection = __HAL_RCC_GET_UART4_SOURCE();
 1281              		.loc 1 747 3 is_stmt 1 view .LVU455
 1282              		.loc 1 747 40 is_stmt 0 view .LVU456
 1283 00d6 D3F89020 		ldr	r2, [r3, #144]
 1284 00da 02F0C002 		and	r2, r2, #192
ARM GAS  /tmp/ccLEMPDN.s 			page 39


 1285              		.loc 1 747 38 view .LVU457
 1286 00de 0265     		str	r2, [r0, #80]
 748:Drivers/STM32F7xx_HAL_Driver/Src/stm32f7xx_hal_rcc_ex.c **** 
 749:Drivers/STM32F7xx_HAL_Driver/Src/stm32f7xx_hal_rcc_ex.c ****   /* Get the UART5 clock configuration ------------------------------------------*/
 750:Drivers/STM32F7xx_HAL_Driver/Src/stm32f7xx_hal_rcc_ex.c ****   PeriphClkInit->Uart5ClockSelection = __HAL_RCC_GET_UART5_SOURCE();
 1287              		.loc 1 750 3 is_stmt 1 view .LVU458
 1288              		.loc 1 750 40 is_stmt 0 view .LVU459
 1289 00e0 D3F89020 		ldr	r2, [r3, #144]
 1290 00e4 02F44072 		and	r2, r2, #768
 1291              		.loc 1 750 38 view .LVU460
 1292 00e8 4265     		str	r2, [r0, #84]
 751:Drivers/STM32F7xx_HAL_Driver/Src/stm32f7xx_hal_rcc_ex.c **** 
 752:Drivers/STM32F7xx_HAL_Driver/Src/stm32f7xx_hal_rcc_ex.c ****   /* Get the USART6 clock configuration ------------------------------------------*/
 753:Drivers/STM32F7xx_HAL_Driver/Src/stm32f7xx_hal_rcc_ex.c ****   PeriphClkInit->Usart6ClockSelection = __HAL_RCC_GET_USART6_SOURCE();
 1293              		.loc 1 753 3 is_stmt 1 view .LVU461
 1294              		.loc 1 753 41 is_stmt 0 view .LVU462
 1295 00ea D3F89020 		ldr	r2, [r3, #144]
 1296 00ee 02F44062 		and	r2, r2, #3072
 1297              		.loc 1 753 39 view .LVU463
 1298 00f2 8265     		str	r2, [r0, #88]
 754:Drivers/STM32F7xx_HAL_Driver/Src/stm32f7xx_hal_rcc_ex.c **** 
 755:Drivers/STM32F7xx_HAL_Driver/Src/stm32f7xx_hal_rcc_ex.c ****   /* Get the UART7 clock configuration ------------------------------------------*/
 756:Drivers/STM32F7xx_HAL_Driver/Src/stm32f7xx_hal_rcc_ex.c ****   PeriphClkInit->Uart7ClockSelection = __HAL_RCC_GET_UART7_SOURCE();
 1299              		.loc 1 756 3 is_stmt 1 view .LVU464
 1300              		.loc 1 756 40 is_stmt 0 view .LVU465
 1301 00f4 D3F89020 		ldr	r2, [r3, #144]
 1302 00f8 02F44052 		and	r2, r2, #12288
 1303              		.loc 1 756 38 view .LVU466
 1304 00fc C265     		str	r2, [r0, #92]
 757:Drivers/STM32F7xx_HAL_Driver/Src/stm32f7xx_hal_rcc_ex.c **** 
 758:Drivers/STM32F7xx_HAL_Driver/Src/stm32f7xx_hal_rcc_ex.c ****   /* Get the UART8 clock configuration ------------------------------------------*/
 759:Drivers/STM32F7xx_HAL_Driver/Src/stm32f7xx_hal_rcc_ex.c ****   PeriphClkInit->Uart8ClockSelection = __HAL_RCC_GET_UART8_SOURCE();
 1305              		.loc 1 759 3 is_stmt 1 view .LVU467
 1306              		.loc 1 759 40 is_stmt 0 view .LVU468
 1307 00fe D3F89020 		ldr	r2, [r3, #144]
 1308 0102 02F44042 		and	r2, r2, #49152
 1309              		.loc 1 759 38 view .LVU469
 1310 0106 0266     		str	r2, [r0, #96]
 760:Drivers/STM32F7xx_HAL_Driver/Src/stm32f7xx_hal_rcc_ex.c **** 
 761:Drivers/STM32F7xx_HAL_Driver/Src/stm32f7xx_hal_rcc_ex.c ****   /* Get the LPTIM1 clock configuration ------------------------------------------*/
 762:Drivers/STM32F7xx_HAL_Driver/Src/stm32f7xx_hal_rcc_ex.c ****   PeriphClkInit->Lptim1ClockSelection = __HAL_RCC_GET_LPTIM1_SOURCE();
 1311              		.loc 1 762 3 is_stmt 1 view .LVU470
 1312              		.loc 1 762 41 is_stmt 0 view .LVU471
 1313 0108 D3F89020 		ldr	r2, [r3, #144]
 1314 010c 02F04072 		and	r2, r2, #50331648
 1315              		.loc 1 762 39 view .LVU472
 1316 0110 4267     		str	r2, [r0, #116]
 763:Drivers/STM32F7xx_HAL_Driver/Src/stm32f7xx_hal_rcc_ex.c **** 
 764:Drivers/STM32F7xx_HAL_Driver/Src/stm32f7xx_hal_rcc_ex.c ****   /* Get the CEC clock configuration -----------------------------------------------*/
 765:Drivers/STM32F7xx_HAL_Driver/Src/stm32f7xx_hal_rcc_ex.c ****   PeriphClkInit->CecClockSelection = __HAL_RCC_GET_CEC_SOURCE();
 1317              		.loc 1 765 3 is_stmt 1 view .LVU473
 1318              		.loc 1 765 38 is_stmt 0 view .LVU474
 1319 0112 D3F89020 		ldr	r2, [r3, #144]
 1320 0116 02F08062 		and	r2, r2, #67108864
 1321              		.loc 1 765 36 view .LVU475
 1322 011a 8267     		str	r2, [r0, #120]
 766:Drivers/STM32F7xx_HAL_Driver/Src/stm32f7xx_hal_rcc_ex.c **** 
ARM GAS  /tmp/ccLEMPDN.s 			page 40


 767:Drivers/STM32F7xx_HAL_Driver/Src/stm32f7xx_hal_rcc_ex.c ****   /* Get the CK48 clock configuration -----------------------------------------------*/
 768:Drivers/STM32F7xx_HAL_Driver/Src/stm32f7xx_hal_rcc_ex.c ****   PeriphClkInit->Clk48ClockSelection = __HAL_RCC_GET_CLK48_SOURCE();
 1323              		.loc 1 768 3 is_stmt 1 view .LVU476
 1324              		.loc 1 768 40 is_stmt 0 view .LVU477
 1325 011c D3F89020 		ldr	r2, [r3, #144]
 1326 0120 02F00062 		and	r2, r2, #134217728
 1327              		.loc 1 768 38 view .LVU478
 1328 0124 C267     		str	r2, [r0, #124]
 769:Drivers/STM32F7xx_HAL_Driver/Src/stm32f7xx_hal_rcc_ex.c **** 
 770:Drivers/STM32F7xx_HAL_Driver/Src/stm32f7xx_hal_rcc_ex.c ****   /* Get the SDMMC1 clock configuration -----------------------------------------------*/
 771:Drivers/STM32F7xx_HAL_Driver/Src/stm32f7xx_hal_rcc_ex.c ****   PeriphClkInit->Sdmmc1ClockSelection = __HAL_RCC_GET_SDMMC1_SOURCE();
 1329              		.loc 1 771 3 is_stmt 1 view .LVU479
 1330              		.loc 1 771 41 is_stmt 0 view .LVU480
 1331 0126 D3F89020 		ldr	r2, [r3, #144]
 1332 012a 02F08052 		and	r2, r2, #268435456
 1333              		.loc 1 771 39 view .LVU481
 1334 012e C0F88020 		str	r2, [r0, #128]
 772:Drivers/STM32F7xx_HAL_Driver/Src/stm32f7xx_hal_rcc_ex.c **** 
 773:Drivers/STM32F7xx_HAL_Driver/Src/stm32f7xx_hal_rcc_ex.c **** #if defined (STM32F765xx) || defined (STM32F767xx) || defined (STM32F769xx) || defined (STM32F777xx
 774:Drivers/STM32F7xx_HAL_Driver/Src/stm32f7xx_hal_rcc_ex.c ****   /* Get the SDMMC2 clock configuration -----------------------------------------------*/
 775:Drivers/STM32F7xx_HAL_Driver/Src/stm32f7xx_hal_rcc_ex.c ****   PeriphClkInit->Sdmmc2ClockSelection = __HAL_RCC_GET_SDMMC2_SOURCE();
 1335              		.loc 1 775 3 is_stmt 1 view .LVU482
 1336              		.loc 1 775 41 is_stmt 0 view .LVU483
 1337 0132 D3F89020 		ldr	r2, [r3, #144]
 1338 0136 02F00052 		and	r2, r2, #536870912
 1339              		.loc 1 775 39 view .LVU484
 1340 013a C0F88420 		str	r2, [r0, #132]
 776:Drivers/STM32F7xx_HAL_Driver/Src/stm32f7xx_hal_rcc_ex.c **** 
 777:Drivers/STM32F7xx_HAL_Driver/Src/stm32f7xx_hal_rcc_ex.c ****   /* Get the DFSDM clock configuration -----------------------------------------------*/
 778:Drivers/STM32F7xx_HAL_Driver/Src/stm32f7xx_hal_rcc_ex.c ****   PeriphClkInit->Dfsdm1ClockSelection = __HAL_RCC_GET_DFSDM1_SOURCE();
 1341              		.loc 1 778 3 is_stmt 1 view .LVU485
 1342              		.loc 1 778 41 is_stmt 0 view .LVU486
 1343 013e D3F88C20 		ldr	r2, [r3, #140]
 1344 0142 02F00072 		and	r2, r2, #33554432
 1345              		.loc 1 778 39 view .LVU487
 1346 0146 C0F88820 		str	r2, [r0, #136]
 779:Drivers/STM32F7xx_HAL_Driver/Src/stm32f7xx_hal_rcc_ex.c **** 
 780:Drivers/STM32F7xx_HAL_Driver/Src/stm32f7xx_hal_rcc_ex.c ****   /* Get the DFSDM AUDIO clock configuration -----------------------------------------------*/
 781:Drivers/STM32F7xx_HAL_Driver/Src/stm32f7xx_hal_rcc_ex.c ****   PeriphClkInit->Dfsdm1AudioClockSelection = __HAL_RCC_GET_DFSDM1AUDIO_SOURCE();
 1347              		.loc 1 781 3 is_stmt 1 view .LVU488
 1348              		.loc 1 781 46 is_stmt 0 view .LVU489
 1349 014a D3F88C20 		ldr	r2, [r3, #140]
 1350 014e 02F08062 		and	r2, r2, #67108864
 1351              		.loc 1 781 44 view .LVU490
 1352 0152 C0F88C20 		str	r2, [r0, #140]
 782:Drivers/STM32F7xx_HAL_Driver/Src/stm32f7xx_hal_rcc_ex.c **** #endif /* STM32F767xx || STM32F769xx || STM32F777xx || STM32F779xx */
 783:Drivers/STM32F7xx_HAL_Driver/Src/stm32f7xx_hal_rcc_ex.c **** 
 784:Drivers/STM32F7xx_HAL_Driver/Src/stm32f7xx_hal_rcc_ex.c ****   /* Get the RTC Clock configuration -----------------------------------------------*/
 785:Drivers/STM32F7xx_HAL_Driver/Src/stm32f7xx_hal_rcc_ex.c ****   tempreg = (RCC->CFGR & RCC_CFGR_RTCPRE);
 1353              		.loc 1 785 3 is_stmt 1 view .LVU491
 1354              		.loc 1 785 17 is_stmt 0 view .LVU492
 1355 0156 9968     		ldr	r1, [r3, #8]
 1356              		.loc 1 785 11 view .LVU493
 1357 0158 01F4F811 		and	r1, r1, #2031616
 1358              	.LVL78:
 786:Drivers/STM32F7xx_HAL_Driver/Src/stm32f7xx_hal_rcc_ex.c ****   PeriphClkInit->RTCClockSelection = (uint32_t)((tempreg) | (RCC->BDCR & RCC_BDCR_RTCSEL));
 1359              		.loc 1 786 3 is_stmt 1 view .LVU494
ARM GAS  /tmp/ccLEMPDN.s 			page 41


 1360              		.loc 1 786 65 is_stmt 0 view .LVU495
 1361 015c 1A6F     		ldr	r2, [r3, #112]
 1362              		.loc 1 786 72 view .LVU496
 1363 015e 02F44072 		and	r2, r2, #768
 1364              		.loc 1 786 38 view .LVU497
 1365 0162 0A43     		orrs	r2, r2, r1
 1366              		.loc 1 786 36 view .LVU498
 1367 0164 0263     		str	r2, [r0, #48]
 787:Drivers/STM32F7xx_HAL_Driver/Src/stm32f7xx_hal_rcc_ex.c **** 
 788:Drivers/STM32F7xx_HAL_Driver/Src/stm32f7xx_hal_rcc_ex.c ****   /* Get the TIM Prescaler configuration --------------------------------------------*/
 789:Drivers/STM32F7xx_HAL_Driver/Src/stm32f7xx_hal_rcc_ex.c ****   if ((RCC->DCKCFGR1 & RCC_DCKCFGR1_TIMPRE) == RESET)
 1368              		.loc 1 789 3 is_stmt 1 view .LVU499
 1369              		.loc 1 789 11 is_stmt 0 view .LVU500
 1370 0166 D3F88C30 		ldr	r3, [r3, #140]
 1371              		.loc 1 789 6 view .LVU501
 1372 016a 13F0807F 		tst	r3, #16777216
 1373 016e 02D1     		bne	.L92
 790:Drivers/STM32F7xx_HAL_Driver/Src/stm32f7xx_hal_rcc_ex.c ****   {
 791:Drivers/STM32F7xx_HAL_Driver/Src/stm32f7xx_hal_rcc_ex.c ****     PeriphClkInit->TIMPresSelection = RCC_TIMPRES_DESACTIVATED;
 1374              		.loc 1 791 5 is_stmt 1 view .LVU502
 1375              		.loc 1 791 37 is_stmt 0 view .LVU503
 1376 0170 0023     		movs	r3, #0
 1377 0172 8363     		str	r3, [r0, #56]
 1378 0174 7047     		bx	lr
 1379              	.L92:
 792:Drivers/STM32F7xx_HAL_Driver/Src/stm32f7xx_hal_rcc_ex.c ****   }
 793:Drivers/STM32F7xx_HAL_Driver/Src/stm32f7xx_hal_rcc_ex.c ****   else
 794:Drivers/STM32F7xx_HAL_Driver/Src/stm32f7xx_hal_rcc_ex.c ****   {
 795:Drivers/STM32F7xx_HAL_Driver/Src/stm32f7xx_hal_rcc_ex.c ****     PeriphClkInit->TIMPresSelection = RCC_TIMPRES_ACTIVATED;
 1380              		.loc 1 795 5 is_stmt 1 view .LVU504
 1381              		.loc 1 795 37 is_stmt 0 view .LVU505
 1382 0176 4FF08073 		mov	r3, #16777216
 1383 017a 8363     		str	r3, [r0, #56]
 796:Drivers/STM32F7xx_HAL_Driver/Src/stm32f7xx_hal_rcc_ex.c ****   }
 797:Drivers/STM32F7xx_HAL_Driver/Src/stm32f7xx_hal_rcc_ex.c **** }
 1384              		.loc 1 797 1 view .LVU506
 1385 017c 7047     		bx	lr
 1386              	.L95:
 1387 017e 00BF     		.align	2
 1388              	.L94:
 1389 0180 F1FFFF1C 		.word	486539249
 1390 0184 00380240 		.word	1073887232
 1391              		.cfi_endproc
 1392              	.LFE142:
 1394              		.section	.text.HAL_RCCEx_GetPeriphCLKFreq,"ax",%progbits
 1395              		.align	1
 1396              		.global	HAL_RCCEx_GetPeriphCLKFreq
 1397              		.syntax unified
 1398              		.thumb
 1399              		.thumb_func
 1400              		.fpu fpv5-d16
 1402              	HAL_RCCEx_GetPeriphCLKFreq:
 1403              	.LVL79:
 1404              	.LFB143:
 798:Drivers/STM32F7xx_HAL_Driver/Src/stm32f7xx_hal_rcc_ex.c **** #endif /* STM32F745xx || STM32F746xx || STM32F756xx || STM32F765xx || STM32F767xx || STM32F769xx ||
 799:Drivers/STM32F7xx_HAL_Driver/Src/stm32f7xx_hal_rcc_ex.c **** 
 800:Drivers/STM32F7xx_HAL_Driver/Src/stm32f7xx_hal_rcc_ex.c **** #if defined (STM32F722xx) || defined (STM32F723xx) || defined (STM32F732xx) || defined (STM32F733xx
ARM GAS  /tmp/ccLEMPDN.s 			page 42


 801:Drivers/STM32F7xx_HAL_Driver/Src/stm32f7xx_hal_rcc_ex.c **** /**
 802:Drivers/STM32F7xx_HAL_Driver/Src/stm32f7xx_hal_rcc_ex.c ****   * @brief  Initializes the RCC extended peripherals clocks according to the specified
 803:Drivers/STM32F7xx_HAL_Driver/Src/stm32f7xx_hal_rcc_ex.c ****   *         parameters in the RCC_PeriphCLKInitTypeDef.
 804:Drivers/STM32F7xx_HAL_Driver/Src/stm32f7xx_hal_rcc_ex.c ****   * @param  PeriphClkInit pointer to an RCC_PeriphCLKInitTypeDef structure that
 805:Drivers/STM32F7xx_HAL_Driver/Src/stm32f7xx_hal_rcc_ex.c ****   *         contains the configuration information for the Extended Peripherals
 806:Drivers/STM32F7xx_HAL_Driver/Src/stm32f7xx_hal_rcc_ex.c ****   *         clocks(I2S, SAI, RTC, TIM, UARTs, USARTs, LTPIM, SDMMC...).
 807:Drivers/STM32F7xx_HAL_Driver/Src/stm32f7xx_hal_rcc_ex.c ****   *
 808:Drivers/STM32F7xx_HAL_Driver/Src/stm32f7xx_hal_rcc_ex.c ****   * @note   Care must be taken when HAL_RCCEx_PeriphCLKConfig() is used to select
 809:Drivers/STM32F7xx_HAL_Driver/Src/stm32f7xx_hal_rcc_ex.c ****   *         the RTC clock source; in this case the Backup domain will be reset in
 810:Drivers/STM32F7xx_HAL_Driver/Src/stm32f7xx_hal_rcc_ex.c ****   *         order to modify the RTC Clock source, as consequence RTC registers (including
 811:Drivers/STM32F7xx_HAL_Driver/Src/stm32f7xx_hal_rcc_ex.c ****   *         the backup registers) are set to their reset values.
 812:Drivers/STM32F7xx_HAL_Driver/Src/stm32f7xx_hal_rcc_ex.c ****   *
 813:Drivers/STM32F7xx_HAL_Driver/Src/stm32f7xx_hal_rcc_ex.c ****   * @retval HAL status
 814:Drivers/STM32F7xx_HAL_Driver/Src/stm32f7xx_hal_rcc_ex.c ****   */
 815:Drivers/STM32F7xx_HAL_Driver/Src/stm32f7xx_hal_rcc_ex.c **** HAL_StatusTypeDef HAL_RCCEx_PeriphCLKConfig(RCC_PeriphCLKInitTypeDef  *PeriphClkInit)
 816:Drivers/STM32F7xx_HAL_Driver/Src/stm32f7xx_hal_rcc_ex.c **** {
 817:Drivers/STM32F7xx_HAL_Driver/Src/stm32f7xx_hal_rcc_ex.c ****   uint32_t tickstart = 0;
 818:Drivers/STM32F7xx_HAL_Driver/Src/stm32f7xx_hal_rcc_ex.c ****   uint32_t tmpreg0 = 0;
 819:Drivers/STM32F7xx_HAL_Driver/Src/stm32f7xx_hal_rcc_ex.c ****   uint32_t plli2sused = 0;
 820:Drivers/STM32F7xx_HAL_Driver/Src/stm32f7xx_hal_rcc_ex.c ****   uint32_t pllsaiused = 0;
 821:Drivers/STM32F7xx_HAL_Driver/Src/stm32f7xx_hal_rcc_ex.c **** 
 822:Drivers/STM32F7xx_HAL_Driver/Src/stm32f7xx_hal_rcc_ex.c ****   /* Check the parameters */
 823:Drivers/STM32F7xx_HAL_Driver/Src/stm32f7xx_hal_rcc_ex.c ****   assert_param(IS_RCC_PERIPHCLOCK(PeriphClkInit->PeriphClockSelection));
 824:Drivers/STM32F7xx_HAL_Driver/Src/stm32f7xx_hal_rcc_ex.c **** 
 825:Drivers/STM32F7xx_HAL_Driver/Src/stm32f7xx_hal_rcc_ex.c ****   /*----------------------------------- I2S configuration ----------------------------------*/
 826:Drivers/STM32F7xx_HAL_Driver/Src/stm32f7xx_hal_rcc_ex.c ****   if(((PeriphClkInit->PeriphClockSelection) & RCC_PERIPHCLK_I2S) == (RCC_PERIPHCLK_I2S))
 827:Drivers/STM32F7xx_HAL_Driver/Src/stm32f7xx_hal_rcc_ex.c ****   {
 828:Drivers/STM32F7xx_HAL_Driver/Src/stm32f7xx_hal_rcc_ex.c ****     /* Check the parameters */
 829:Drivers/STM32F7xx_HAL_Driver/Src/stm32f7xx_hal_rcc_ex.c ****     assert_param(IS_RCC_I2SCLKSOURCE(PeriphClkInit->I2sClockSelection));
 830:Drivers/STM32F7xx_HAL_Driver/Src/stm32f7xx_hal_rcc_ex.c **** 
 831:Drivers/STM32F7xx_HAL_Driver/Src/stm32f7xx_hal_rcc_ex.c ****     /* Configure I2S Clock source */
 832:Drivers/STM32F7xx_HAL_Driver/Src/stm32f7xx_hal_rcc_ex.c ****     __HAL_RCC_I2S_CONFIG(PeriphClkInit->I2sClockSelection);
 833:Drivers/STM32F7xx_HAL_Driver/Src/stm32f7xx_hal_rcc_ex.c **** 
 834:Drivers/STM32F7xx_HAL_Driver/Src/stm32f7xx_hal_rcc_ex.c ****     /* Enable the PLLI2S when it's used as clock source for I2S */
 835:Drivers/STM32F7xx_HAL_Driver/Src/stm32f7xx_hal_rcc_ex.c ****     if(PeriphClkInit->I2sClockSelection == RCC_I2SCLKSOURCE_PLLI2S)
 836:Drivers/STM32F7xx_HAL_Driver/Src/stm32f7xx_hal_rcc_ex.c ****     {
 837:Drivers/STM32F7xx_HAL_Driver/Src/stm32f7xx_hal_rcc_ex.c ****       plli2sused = 1;
 838:Drivers/STM32F7xx_HAL_Driver/Src/stm32f7xx_hal_rcc_ex.c ****     }
 839:Drivers/STM32F7xx_HAL_Driver/Src/stm32f7xx_hal_rcc_ex.c ****   }
 840:Drivers/STM32F7xx_HAL_Driver/Src/stm32f7xx_hal_rcc_ex.c **** 
 841:Drivers/STM32F7xx_HAL_Driver/Src/stm32f7xx_hal_rcc_ex.c ****   /*------------------------------------ SAI1 configuration --------------------------------------*
 842:Drivers/STM32F7xx_HAL_Driver/Src/stm32f7xx_hal_rcc_ex.c ****   if(((PeriphClkInit->PeriphClockSelection) & RCC_PERIPHCLK_SAI1) == (RCC_PERIPHCLK_SAI1))
 843:Drivers/STM32F7xx_HAL_Driver/Src/stm32f7xx_hal_rcc_ex.c ****   {
 844:Drivers/STM32F7xx_HAL_Driver/Src/stm32f7xx_hal_rcc_ex.c ****     /* Check the parameters */
 845:Drivers/STM32F7xx_HAL_Driver/Src/stm32f7xx_hal_rcc_ex.c ****     assert_param(IS_RCC_SAI1CLKSOURCE(PeriphClkInit->Sai1ClockSelection));
 846:Drivers/STM32F7xx_HAL_Driver/Src/stm32f7xx_hal_rcc_ex.c **** 
 847:Drivers/STM32F7xx_HAL_Driver/Src/stm32f7xx_hal_rcc_ex.c ****     /* Configure SAI1 Clock source */
 848:Drivers/STM32F7xx_HAL_Driver/Src/stm32f7xx_hal_rcc_ex.c ****     __HAL_RCC_SAI1_CONFIG(PeriphClkInit->Sai1ClockSelection);
 849:Drivers/STM32F7xx_HAL_Driver/Src/stm32f7xx_hal_rcc_ex.c ****     /* Enable the PLLI2S when it's used as clock source for SAI */
 850:Drivers/STM32F7xx_HAL_Driver/Src/stm32f7xx_hal_rcc_ex.c ****     if(PeriphClkInit->Sai1ClockSelection == RCC_SAI1CLKSOURCE_PLLI2S)
 851:Drivers/STM32F7xx_HAL_Driver/Src/stm32f7xx_hal_rcc_ex.c ****     {
 852:Drivers/STM32F7xx_HAL_Driver/Src/stm32f7xx_hal_rcc_ex.c ****       plli2sused = 1;
 853:Drivers/STM32F7xx_HAL_Driver/Src/stm32f7xx_hal_rcc_ex.c ****     }
 854:Drivers/STM32F7xx_HAL_Driver/Src/stm32f7xx_hal_rcc_ex.c ****     /* Enable the PLLSAI when it's used as clock source for SAI */
 855:Drivers/STM32F7xx_HAL_Driver/Src/stm32f7xx_hal_rcc_ex.c ****     if(PeriphClkInit->Sai1ClockSelection == RCC_SAI1CLKSOURCE_PLLSAI)
 856:Drivers/STM32F7xx_HAL_Driver/Src/stm32f7xx_hal_rcc_ex.c ****     {
 857:Drivers/STM32F7xx_HAL_Driver/Src/stm32f7xx_hal_rcc_ex.c ****       pllsaiused = 1;
ARM GAS  /tmp/ccLEMPDN.s 			page 43


 858:Drivers/STM32F7xx_HAL_Driver/Src/stm32f7xx_hal_rcc_ex.c ****     }
 859:Drivers/STM32F7xx_HAL_Driver/Src/stm32f7xx_hal_rcc_ex.c ****   }
 860:Drivers/STM32F7xx_HAL_Driver/Src/stm32f7xx_hal_rcc_ex.c **** 
 861:Drivers/STM32F7xx_HAL_Driver/Src/stm32f7xx_hal_rcc_ex.c ****   /*------------------------------------ SAI2 configuration --------------------------------------*
 862:Drivers/STM32F7xx_HAL_Driver/Src/stm32f7xx_hal_rcc_ex.c ****   if(((PeriphClkInit->PeriphClockSelection) & RCC_PERIPHCLK_SAI2) == (RCC_PERIPHCLK_SAI2))
 863:Drivers/STM32F7xx_HAL_Driver/Src/stm32f7xx_hal_rcc_ex.c ****   {
 864:Drivers/STM32F7xx_HAL_Driver/Src/stm32f7xx_hal_rcc_ex.c ****     /* Check the parameters */
 865:Drivers/STM32F7xx_HAL_Driver/Src/stm32f7xx_hal_rcc_ex.c ****     assert_param(IS_RCC_SAI2CLKSOURCE(PeriphClkInit->Sai2ClockSelection));
 866:Drivers/STM32F7xx_HAL_Driver/Src/stm32f7xx_hal_rcc_ex.c **** 
 867:Drivers/STM32F7xx_HAL_Driver/Src/stm32f7xx_hal_rcc_ex.c ****     /* Configure SAI2 Clock source */
 868:Drivers/STM32F7xx_HAL_Driver/Src/stm32f7xx_hal_rcc_ex.c ****     __HAL_RCC_SAI2_CONFIG(PeriphClkInit->Sai2ClockSelection);
 869:Drivers/STM32F7xx_HAL_Driver/Src/stm32f7xx_hal_rcc_ex.c **** 
 870:Drivers/STM32F7xx_HAL_Driver/Src/stm32f7xx_hal_rcc_ex.c ****     /* Enable the PLLI2S when it's used as clock source for SAI */
 871:Drivers/STM32F7xx_HAL_Driver/Src/stm32f7xx_hal_rcc_ex.c ****     if(PeriphClkInit->Sai2ClockSelection == RCC_SAI2CLKSOURCE_PLLI2S)
 872:Drivers/STM32F7xx_HAL_Driver/Src/stm32f7xx_hal_rcc_ex.c ****     {
 873:Drivers/STM32F7xx_HAL_Driver/Src/stm32f7xx_hal_rcc_ex.c ****       plli2sused = 1;
 874:Drivers/STM32F7xx_HAL_Driver/Src/stm32f7xx_hal_rcc_ex.c ****     }
 875:Drivers/STM32F7xx_HAL_Driver/Src/stm32f7xx_hal_rcc_ex.c ****     /* Enable the PLLSAI when it's used as clock source for SAI */
 876:Drivers/STM32F7xx_HAL_Driver/Src/stm32f7xx_hal_rcc_ex.c ****     if(PeriphClkInit->Sai2ClockSelection == RCC_SAI2CLKSOURCE_PLLSAI)
 877:Drivers/STM32F7xx_HAL_Driver/Src/stm32f7xx_hal_rcc_ex.c ****     {
 878:Drivers/STM32F7xx_HAL_Driver/Src/stm32f7xx_hal_rcc_ex.c ****       pllsaiused = 1;
 879:Drivers/STM32F7xx_HAL_Driver/Src/stm32f7xx_hal_rcc_ex.c ****     }
 880:Drivers/STM32F7xx_HAL_Driver/Src/stm32f7xx_hal_rcc_ex.c ****   }
 881:Drivers/STM32F7xx_HAL_Driver/Src/stm32f7xx_hal_rcc_ex.c **** 
 882:Drivers/STM32F7xx_HAL_Driver/Src/stm32f7xx_hal_rcc_ex.c ****   /*------------------------------------ RTC configuration --------------------------------------*/
 883:Drivers/STM32F7xx_HAL_Driver/Src/stm32f7xx_hal_rcc_ex.c ****   if(((PeriphClkInit->PeriphClockSelection) & RCC_PERIPHCLK_RTC) == (RCC_PERIPHCLK_RTC))
 884:Drivers/STM32F7xx_HAL_Driver/Src/stm32f7xx_hal_rcc_ex.c ****   {
 885:Drivers/STM32F7xx_HAL_Driver/Src/stm32f7xx_hal_rcc_ex.c ****     /* Check for RTC Parameters used to output RTCCLK */
 886:Drivers/STM32F7xx_HAL_Driver/Src/stm32f7xx_hal_rcc_ex.c ****     assert_param(IS_RCC_RTCCLKSOURCE(PeriphClkInit->RTCClockSelection));
 887:Drivers/STM32F7xx_HAL_Driver/Src/stm32f7xx_hal_rcc_ex.c **** 
 888:Drivers/STM32F7xx_HAL_Driver/Src/stm32f7xx_hal_rcc_ex.c ****     /* Enable Power Clock*/
 889:Drivers/STM32F7xx_HAL_Driver/Src/stm32f7xx_hal_rcc_ex.c ****     __HAL_RCC_PWR_CLK_ENABLE();
 890:Drivers/STM32F7xx_HAL_Driver/Src/stm32f7xx_hal_rcc_ex.c **** 
 891:Drivers/STM32F7xx_HAL_Driver/Src/stm32f7xx_hal_rcc_ex.c ****     /* Enable write access to Backup domain */
 892:Drivers/STM32F7xx_HAL_Driver/Src/stm32f7xx_hal_rcc_ex.c ****     PWR->CR1 |= PWR_CR1_DBP;
 893:Drivers/STM32F7xx_HAL_Driver/Src/stm32f7xx_hal_rcc_ex.c **** 
 894:Drivers/STM32F7xx_HAL_Driver/Src/stm32f7xx_hal_rcc_ex.c ****     /* Get Start Tick*/
 895:Drivers/STM32F7xx_HAL_Driver/Src/stm32f7xx_hal_rcc_ex.c ****     tickstart = HAL_GetTick();
 896:Drivers/STM32F7xx_HAL_Driver/Src/stm32f7xx_hal_rcc_ex.c **** 
 897:Drivers/STM32F7xx_HAL_Driver/Src/stm32f7xx_hal_rcc_ex.c ****     /* Wait for Backup domain Write protection disable */
 898:Drivers/STM32F7xx_HAL_Driver/Src/stm32f7xx_hal_rcc_ex.c ****     while((PWR->CR1 & PWR_CR1_DBP) == RESET)
 899:Drivers/STM32F7xx_HAL_Driver/Src/stm32f7xx_hal_rcc_ex.c ****     {
 900:Drivers/STM32F7xx_HAL_Driver/Src/stm32f7xx_hal_rcc_ex.c ****       if((HAL_GetTick() - tickstart) > RCC_DBP_TIMEOUT_VALUE)
 901:Drivers/STM32F7xx_HAL_Driver/Src/stm32f7xx_hal_rcc_ex.c ****       {
 902:Drivers/STM32F7xx_HAL_Driver/Src/stm32f7xx_hal_rcc_ex.c ****         return HAL_TIMEOUT;
 903:Drivers/STM32F7xx_HAL_Driver/Src/stm32f7xx_hal_rcc_ex.c ****       }
 904:Drivers/STM32F7xx_HAL_Driver/Src/stm32f7xx_hal_rcc_ex.c ****     }
 905:Drivers/STM32F7xx_HAL_Driver/Src/stm32f7xx_hal_rcc_ex.c **** 
 906:Drivers/STM32F7xx_HAL_Driver/Src/stm32f7xx_hal_rcc_ex.c ****     /* Reset the Backup domain only if the RTC Clock source selection is modified */
 907:Drivers/STM32F7xx_HAL_Driver/Src/stm32f7xx_hal_rcc_ex.c ****     tmpreg0 = (RCC->BDCR & RCC_BDCR_RTCSEL);
 908:Drivers/STM32F7xx_HAL_Driver/Src/stm32f7xx_hal_rcc_ex.c **** 
 909:Drivers/STM32F7xx_HAL_Driver/Src/stm32f7xx_hal_rcc_ex.c ****     if((tmpreg0 != 0x00000000U) && (tmpreg0 != (PeriphClkInit->RTCClockSelection & RCC_BDCR_RTCSEL)
 910:Drivers/STM32F7xx_HAL_Driver/Src/stm32f7xx_hal_rcc_ex.c ****     {
 911:Drivers/STM32F7xx_HAL_Driver/Src/stm32f7xx_hal_rcc_ex.c ****       /* Store the content of BDCR register before the reset of Backup Domain */
 912:Drivers/STM32F7xx_HAL_Driver/Src/stm32f7xx_hal_rcc_ex.c ****       tmpreg0 = (RCC->BDCR & ~(RCC_BDCR_RTCSEL));
 913:Drivers/STM32F7xx_HAL_Driver/Src/stm32f7xx_hal_rcc_ex.c **** 
 914:Drivers/STM32F7xx_HAL_Driver/Src/stm32f7xx_hal_rcc_ex.c ****       /* RTC Clock selection can be changed only if the Backup Domain is reset */
ARM GAS  /tmp/ccLEMPDN.s 			page 44


 915:Drivers/STM32F7xx_HAL_Driver/Src/stm32f7xx_hal_rcc_ex.c ****       __HAL_RCC_BACKUPRESET_FORCE();
 916:Drivers/STM32F7xx_HAL_Driver/Src/stm32f7xx_hal_rcc_ex.c ****       __HAL_RCC_BACKUPRESET_RELEASE();
 917:Drivers/STM32F7xx_HAL_Driver/Src/stm32f7xx_hal_rcc_ex.c **** 
 918:Drivers/STM32F7xx_HAL_Driver/Src/stm32f7xx_hal_rcc_ex.c ****       /* Restore the Content of BDCR register */
 919:Drivers/STM32F7xx_HAL_Driver/Src/stm32f7xx_hal_rcc_ex.c ****       RCC->BDCR = tmpreg0;
 920:Drivers/STM32F7xx_HAL_Driver/Src/stm32f7xx_hal_rcc_ex.c **** 
 921:Drivers/STM32F7xx_HAL_Driver/Src/stm32f7xx_hal_rcc_ex.c ****       /* Wait for LSE reactivation if LSE was enable prior to Backup Domain reset */
 922:Drivers/STM32F7xx_HAL_Driver/Src/stm32f7xx_hal_rcc_ex.c ****       if (HAL_IS_BIT_SET(RCC->BDCR, RCC_BDCR_LSEON))
 923:Drivers/STM32F7xx_HAL_Driver/Src/stm32f7xx_hal_rcc_ex.c ****       {
 924:Drivers/STM32F7xx_HAL_Driver/Src/stm32f7xx_hal_rcc_ex.c ****         /* Get Start Tick*/
 925:Drivers/STM32F7xx_HAL_Driver/Src/stm32f7xx_hal_rcc_ex.c ****         tickstart = HAL_GetTick();
 926:Drivers/STM32F7xx_HAL_Driver/Src/stm32f7xx_hal_rcc_ex.c **** 
 927:Drivers/STM32F7xx_HAL_Driver/Src/stm32f7xx_hal_rcc_ex.c ****         /* Wait till LSE is ready */
 928:Drivers/STM32F7xx_HAL_Driver/Src/stm32f7xx_hal_rcc_ex.c ****         while(__HAL_RCC_GET_FLAG(RCC_FLAG_LSERDY) == RESET)
 929:Drivers/STM32F7xx_HAL_Driver/Src/stm32f7xx_hal_rcc_ex.c ****         {
 930:Drivers/STM32F7xx_HAL_Driver/Src/stm32f7xx_hal_rcc_ex.c ****           if((HAL_GetTick() - tickstart ) > RCC_LSE_TIMEOUT_VALUE)
 931:Drivers/STM32F7xx_HAL_Driver/Src/stm32f7xx_hal_rcc_ex.c ****           {
 932:Drivers/STM32F7xx_HAL_Driver/Src/stm32f7xx_hal_rcc_ex.c ****             return HAL_TIMEOUT;
 933:Drivers/STM32F7xx_HAL_Driver/Src/stm32f7xx_hal_rcc_ex.c ****           }
 934:Drivers/STM32F7xx_HAL_Driver/Src/stm32f7xx_hal_rcc_ex.c ****         }
 935:Drivers/STM32F7xx_HAL_Driver/Src/stm32f7xx_hal_rcc_ex.c ****       }
 936:Drivers/STM32F7xx_HAL_Driver/Src/stm32f7xx_hal_rcc_ex.c ****     }
 937:Drivers/STM32F7xx_HAL_Driver/Src/stm32f7xx_hal_rcc_ex.c ****     __HAL_RCC_RTC_CONFIG(PeriphClkInit->RTCClockSelection);
 938:Drivers/STM32F7xx_HAL_Driver/Src/stm32f7xx_hal_rcc_ex.c ****   }
 939:Drivers/STM32F7xx_HAL_Driver/Src/stm32f7xx_hal_rcc_ex.c **** 
 940:Drivers/STM32F7xx_HAL_Driver/Src/stm32f7xx_hal_rcc_ex.c ****   /*------------------------------------ TIM configuration --------------------------------------*/
 941:Drivers/STM32F7xx_HAL_Driver/Src/stm32f7xx_hal_rcc_ex.c ****   if(((PeriphClkInit->PeriphClockSelection) & RCC_PERIPHCLK_TIM) == (RCC_PERIPHCLK_TIM))
 942:Drivers/STM32F7xx_HAL_Driver/Src/stm32f7xx_hal_rcc_ex.c ****   {
 943:Drivers/STM32F7xx_HAL_Driver/Src/stm32f7xx_hal_rcc_ex.c ****     /* Check the parameters */
 944:Drivers/STM32F7xx_HAL_Driver/Src/stm32f7xx_hal_rcc_ex.c ****     assert_param(IS_RCC_TIMPRES(PeriphClkInit->TIMPresSelection));
 945:Drivers/STM32F7xx_HAL_Driver/Src/stm32f7xx_hal_rcc_ex.c **** 
 946:Drivers/STM32F7xx_HAL_Driver/Src/stm32f7xx_hal_rcc_ex.c ****     /* Configure Timer Prescaler */
 947:Drivers/STM32F7xx_HAL_Driver/Src/stm32f7xx_hal_rcc_ex.c ****     __HAL_RCC_TIMCLKPRESCALER(PeriphClkInit->TIMPresSelection);
 948:Drivers/STM32F7xx_HAL_Driver/Src/stm32f7xx_hal_rcc_ex.c ****   }
 949:Drivers/STM32F7xx_HAL_Driver/Src/stm32f7xx_hal_rcc_ex.c **** 
 950:Drivers/STM32F7xx_HAL_Driver/Src/stm32f7xx_hal_rcc_ex.c ****   /*-------------------------------------- I2C1 Configuration -----------------------------------*/
 951:Drivers/STM32F7xx_HAL_Driver/Src/stm32f7xx_hal_rcc_ex.c ****   if(((PeriphClkInit->PeriphClockSelection) & RCC_PERIPHCLK_I2C1) == RCC_PERIPHCLK_I2C1)
 952:Drivers/STM32F7xx_HAL_Driver/Src/stm32f7xx_hal_rcc_ex.c ****   {
 953:Drivers/STM32F7xx_HAL_Driver/Src/stm32f7xx_hal_rcc_ex.c ****     /* Check the parameters */
 954:Drivers/STM32F7xx_HAL_Driver/Src/stm32f7xx_hal_rcc_ex.c ****     assert_param(IS_RCC_I2C1CLKSOURCE(PeriphClkInit->I2c1ClockSelection));
 955:Drivers/STM32F7xx_HAL_Driver/Src/stm32f7xx_hal_rcc_ex.c **** 
 956:Drivers/STM32F7xx_HAL_Driver/Src/stm32f7xx_hal_rcc_ex.c ****     /* Configure the I2C1 clock source */
 957:Drivers/STM32F7xx_HAL_Driver/Src/stm32f7xx_hal_rcc_ex.c ****     __HAL_RCC_I2C1_CONFIG(PeriphClkInit->I2c1ClockSelection);
 958:Drivers/STM32F7xx_HAL_Driver/Src/stm32f7xx_hal_rcc_ex.c ****   }
 959:Drivers/STM32F7xx_HAL_Driver/Src/stm32f7xx_hal_rcc_ex.c **** 
 960:Drivers/STM32F7xx_HAL_Driver/Src/stm32f7xx_hal_rcc_ex.c ****   /*-------------------------------------- I2C2 Configuration -----------------------------------*/
 961:Drivers/STM32F7xx_HAL_Driver/Src/stm32f7xx_hal_rcc_ex.c ****   if(((PeriphClkInit->PeriphClockSelection) & RCC_PERIPHCLK_I2C2) == RCC_PERIPHCLK_I2C2)
 962:Drivers/STM32F7xx_HAL_Driver/Src/stm32f7xx_hal_rcc_ex.c ****   {
 963:Drivers/STM32F7xx_HAL_Driver/Src/stm32f7xx_hal_rcc_ex.c ****     /* Check the parameters */
 964:Drivers/STM32F7xx_HAL_Driver/Src/stm32f7xx_hal_rcc_ex.c ****     assert_param(IS_RCC_I2C2CLKSOURCE(PeriphClkInit->I2c2ClockSelection));
 965:Drivers/STM32F7xx_HAL_Driver/Src/stm32f7xx_hal_rcc_ex.c **** 
 966:Drivers/STM32F7xx_HAL_Driver/Src/stm32f7xx_hal_rcc_ex.c ****     /* Configure the I2C2 clock source */
 967:Drivers/STM32F7xx_HAL_Driver/Src/stm32f7xx_hal_rcc_ex.c ****     __HAL_RCC_I2C2_CONFIG(PeriphClkInit->I2c2ClockSelection);
 968:Drivers/STM32F7xx_HAL_Driver/Src/stm32f7xx_hal_rcc_ex.c ****   }
 969:Drivers/STM32F7xx_HAL_Driver/Src/stm32f7xx_hal_rcc_ex.c **** 
 970:Drivers/STM32F7xx_HAL_Driver/Src/stm32f7xx_hal_rcc_ex.c ****   /*-------------------------------------- I2C3 Configuration -----------------------------------*/
 971:Drivers/STM32F7xx_HAL_Driver/Src/stm32f7xx_hal_rcc_ex.c ****   if(((PeriphClkInit->PeriphClockSelection) & RCC_PERIPHCLK_I2C3) == RCC_PERIPHCLK_I2C3)
ARM GAS  /tmp/ccLEMPDN.s 			page 45


 972:Drivers/STM32F7xx_HAL_Driver/Src/stm32f7xx_hal_rcc_ex.c ****   {
 973:Drivers/STM32F7xx_HAL_Driver/Src/stm32f7xx_hal_rcc_ex.c ****     /* Check the parameters */
 974:Drivers/STM32F7xx_HAL_Driver/Src/stm32f7xx_hal_rcc_ex.c ****     assert_param(IS_RCC_I2C3CLKSOURCE(PeriphClkInit->I2c3ClockSelection));
 975:Drivers/STM32F7xx_HAL_Driver/Src/stm32f7xx_hal_rcc_ex.c **** 
 976:Drivers/STM32F7xx_HAL_Driver/Src/stm32f7xx_hal_rcc_ex.c ****     /* Configure the I2C3 clock source */
 977:Drivers/STM32F7xx_HAL_Driver/Src/stm32f7xx_hal_rcc_ex.c ****     __HAL_RCC_I2C3_CONFIG(PeriphClkInit->I2c3ClockSelection);
 978:Drivers/STM32F7xx_HAL_Driver/Src/stm32f7xx_hal_rcc_ex.c ****   }
 979:Drivers/STM32F7xx_HAL_Driver/Src/stm32f7xx_hal_rcc_ex.c **** 
 980:Drivers/STM32F7xx_HAL_Driver/Src/stm32f7xx_hal_rcc_ex.c ****   /*-------------------------------------- USART1 Configuration -----------------------------------
 981:Drivers/STM32F7xx_HAL_Driver/Src/stm32f7xx_hal_rcc_ex.c ****   if(((PeriphClkInit->PeriphClockSelection) & RCC_PERIPHCLK_USART1) == RCC_PERIPHCLK_USART1)
 982:Drivers/STM32F7xx_HAL_Driver/Src/stm32f7xx_hal_rcc_ex.c ****   {
 983:Drivers/STM32F7xx_HAL_Driver/Src/stm32f7xx_hal_rcc_ex.c ****     /* Check the parameters */
 984:Drivers/STM32F7xx_HAL_Driver/Src/stm32f7xx_hal_rcc_ex.c ****     assert_param(IS_RCC_USART1CLKSOURCE(PeriphClkInit->Usart1ClockSelection));
 985:Drivers/STM32F7xx_HAL_Driver/Src/stm32f7xx_hal_rcc_ex.c **** 
 986:Drivers/STM32F7xx_HAL_Driver/Src/stm32f7xx_hal_rcc_ex.c ****     /* Configure the USART1 clock source */
 987:Drivers/STM32F7xx_HAL_Driver/Src/stm32f7xx_hal_rcc_ex.c ****     __HAL_RCC_USART1_CONFIG(PeriphClkInit->Usart1ClockSelection);
 988:Drivers/STM32F7xx_HAL_Driver/Src/stm32f7xx_hal_rcc_ex.c ****   }
 989:Drivers/STM32F7xx_HAL_Driver/Src/stm32f7xx_hal_rcc_ex.c **** 
 990:Drivers/STM32F7xx_HAL_Driver/Src/stm32f7xx_hal_rcc_ex.c ****   /*-------------------------------------- USART2 Configuration -----------------------------------
 991:Drivers/STM32F7xx_HAL_Driver/Src/stm32f7xx_hal_rcc_ex.c ****   if(((PeriphClkInit->PeriphClockSelection) & RCC_PERIPHCLK_USART2) == RCC_PERIPHCLK_USART2)
 992:Drivers/STM32F7xx_HAL_Driver/Src/stm32f7xx_hal_rcc_ex.c ****   {
 993:Drivers/STM32F7xx_HAL_Driver/Src/stm32f7xx_hal_rcc_ex.c ****     /* Check the parameters */
 994:Drivers/STM32F7xx_HAL_Driver/Src/stm32f7xx_hal_rcc_ex.c ****     assert_param(IS_RCC_USART2CLKSOURCE(PeriphClkInit->Usart2ClockSelection));
 995:Drivers/STM32F7xx_HAL_Driver/Src/stm32f7xx_hal_rcc_ex.c **** 
 996:Drivers/STM32F7xx_HAL_Driver/Src/stm32f7xx_hal_rcc_ex.c ****     /* Configure the USART2 clock source */
 997:Drivers/STM32F7xx_HAL_Driver/Src/stm32f7xx_hal_rcc_ex.c ****     __HAL_RCC_USART2_CONFIG(PeriphClkInit->Usart2ClockSelection);
 998:Drivers/STM32F7xx_HAL_Driver/Src/stm32f7xx_hal_rcc_ex.c ****   }
 999:Drivers/STM32F7xx_HAL_Driver/Src/stm32f7xx_hal_rcc_ex.c **** 
1000:Drivers/STM32F7xx_HAL_Driver/Src/stm32f7xx_hal_rcc_ex.c ****   /*-------------------------------------- USART3 Configuration -----------------------------------
1001:Drivers/STM32F7xx_HAL_Driver/Src/stm32f7xx_hal_rcc_ex.c ****   if(((PeriphClkInit->PeriphClockSelection) & RCC_PERIPHCLK_USART3) == RCC_PERIPHCLK_USART3)
1002:Drivers/STM32F7xx_HAL_Driver/Src/stm32f7xx_hal_rcc_ex.c ****   {
1003:Drivers/STM32F7xx_HAL_Driver/Src/stm32f7xx_hal_rcc_ex.c ****     /* Check the parameters */
1004:Drivers/STM32F7xx_HAL_Driver/Src/stm32f7xx_hal_rcc_ex.c ****     assert_param(IS_RCC_USART3CLKSOURCE(PeriphClkInit->Usart3ClockSelection));
1005:Drivers/STM32F7xx_HAL_Driver/Src/stm32f7xx_hal_rcc_ex.c **** 
1006:Drivers/STM32F7xx_HAL_Driver/Src/stm32f7xx_hal_rcc_ex.c ****     /* Configure the USART3 clock source */
1007:Drivers/STM32F7xx_HAL_Driver/Src/stm32f7xx_hal_rcc_ex.c ****     __HAL_RCC_USART3_CONFIG(PeriphClkInit->Usart3ClockSelection);
1008:Drivers/STM32F7xx_HAL_Driver/Src/stm32f7xx_hal_rcc_ex.c ****   }
1009:Drivers/STM32F7xx_HAL_Driver/Src/stm32f7xx_hal_rcc_ex.c **** 
1010:Drivers/STM32F7xx_HAL_Driver/Src/stm32f7xx_hal_rcc_ex.c ****   /*-------------------------------------- UART4 Configuration -----------------------------------*
1011:Drivers/STM32F7xx_HAL_Driver/Src/stm32f7xx_hal_rcc_ex.c ****   if(((PeriphClkInit->PeriphClockSelection) & RCC_PERIPHCLK_UART4) == RCC_PERIPHCLK_UART4)
1012:Drivers/STM32F7xx_HAL_Driver/Src/stm32f7xx_hal_rcc_ex.c ****   {
1013:Drivers/STM32F7xx_HAL_Driver/Src/stm32f7xx_hal_rcc_ex.c ****     /* Check the parameters */
1014:Drivers/STM32F7xx_HAL_Driver/Src/stm32f7xx_hal_rcc_ex.c ****     assert_param(IS_RCC_UART4CLKSOURCE(PeriphClkInit->Uart4ClockSelection));
1015:Drivers/STM32F7xx_HAL_Driver/Src/stm32f7xx_hal_rcc_ex.c **** 
1016:Drivers/STM32F7xx_HAL_Driver/Src/stm32f7xx_hal_rcc_ex.c ****     /* Configure the UART4 clock source */
1017:Drivers/STM32F7xx_HAL_Driver/Src/stm32f7xx_hal_rcc_ex.c ****     __HAL_RCC_UART4_CONFIG(PeriphClkInit->Uart4ClockSelection);
1018:Drivers/STM32F7xx_HAL_Driver/Src/stm32f7xx_hal_rcc_ex.c ****   }
1019:Drivers/STM32F7xx_HAL_Driver/Src/stm32f7xx_hal_rcc_ex.c **** 
1020:Drivers/STM32F7xx_HAL_Driver/Src/stm32f7xx_hal_rcc_ex.c ****   /*-------------------------------------- UART5 Configuration -----------------------------------*
1021:Drivers/STM32F7xx_HAL_Driver/Src/stm32f7xx_hal_rcc_ex.c ****   if(((PeriphClkInit->PeriphClockSelection) & RCC_PERIPHCLK_UART5) == RCC_PERIPHCLK_UART5)
1022:Drivers/STM32F7xx_HAL_Driver/Src/stm32f7xx_hal_rcc_ex.c ****   {
1023:Drivers/STM32F7xx_HAL_Driver/Src/stm32f7xx_hal_rcc_ex.c ****     /* Check the parameters */
1024:Drivers/STM32F7xx_HAL_Driver/Src/stm32f7xx_hal_rcc_ex.c ****     assert_param(IS_RCC_UART5CLKSOURCE(PeriphClkInit->Uart5ClockSelection));
1025:Drivers/STM32F7xx_HAL_Driver/Src/stm32f7xx_hal_rcc_ex.c **** 
1026:Drivers/STM32F7xx_HAL_Driver/Src/stm32f7xx_hal_rcc_ex.c ****     /* Configure the UART5 clock source */
1027:Drivers/STM32F7xx_HAL_Driver/Src/stm32f7xx_hal_rcc_ex.c ****     __HAL_RCC_UART5_CONFIG(PeriphClkInit->Uart5ClockSelection);
1028:Drivers/STM32F7xx_HAL_Driver/Src/stm32f7xx_hal_rcc_ex.c ****   }
ARM GAS  /tmp/ccLEMPDN.s 			page 46


1029:Drivers/STM32F7xx_HAL_Driver/Src/stm32f7xx_hal_rcc_ex.c **** 
1030:Drivers/STM32F7xx_HAL_Driver/Src/stm32f7xx_hal_rcc_ex.c ****   /*-------------------------------------- USART6 Configuration -----------------------------------
1031:Drivers/STM32F7xx_HAL_Driver/Src/stm32f7xx_hal_rcc_ex.c ****   if(((PeriphClkInit->PeriphClockSelection) & RCC_PERIPHCLK_USART6) == RCC_PERIPHCLK_USART6)
1032:Drivers/STM32F7xx_HAL_Driver/Src/stm32f7xx_hal_rcc_ex.c ****   {
1033:Drivers/STM32F7xx_HAL_Driver/Src/stm32f7xx_hal_rcc_ex.c ****     /* Check the parameters */
1034:Drivers/STM32F7xx_HAL_Driver/Src/stm32f7xx_hal_rcc_ex.c ****     assert_param(IS_RCC_USART6CLKSOURCE(PeriphClkInit->Usart6ClockSelection));
1035:Drivers/STM32F7xx_HAL_Driver/Src/stm32f7xx_hal_rcc_ex.c **** 
1036:Drivers/STM32F7xx_HAL_Driver/Src/stm32f7xx_hal_rcc_ex.c ****     /* Configure the USART6 clock source */
1037:Drivers/STM32F7xx_HAL_Driver/Src/stm32f7xx_hal_rcc_ex.c ****     __HAL_RCC_USART6_CONFIG(PeriphClkInit->Usart6ClockSelection);
1038:Drivers/STM32F7xx_HAL_Driver/Src/stm32f7xx_hal_rcc_ex.c ****   }
1039:Drivers/STM32F7xx_HAL_Driver/Src/stm32f7xx_hal_rcc_ex.c **** 
1040:Drivers/STM32F7xx_HAL_Driver/Src/stm32f7xx_hal_rcc_ex.c ****   /*-------------------------------------- UART7 Configuration -----------------------------------*
1041:Drivers/STM32F7xx_HAL_Driver/Src/stm32f7xx_hal_rcc_ex.c ****   if(((PeriphClkInit->PeriphClockSelection) & RCC_PERIPHCLK_UART7) == RCC_PERIPHCLK_UART7)
1042:Drivers/STM32F7xx_HAL_Driver/Src/stm32f7xx_hal_rcc_ex.c ****   {
1043:Drivers/STM32F7xx_HAL_Driver/Src/stm32f7xx_hal_rcc_ex.c ****     /* Check the parameters */
1044:Drivers/STM32F7xx_HAL_Driver/Src/stm32f7xx_hal_rcc_ex.c ****     assert_param(IS_RCC_UART7CLKSOURCE(PeriphClkInit->Uart7ClockSelection));
1045:Drivers/STM32F7xx_HAL_Driver/Src/stm32f7xx_hal_rcc_ex.c **** 
1046:Drivers/STM32F7xx_HAL_Driver/Src/stm32f7xx_hal_rcc_ex.c ****     /* Configure the UART7 clock source */
1047:Drivers/STM32F7xx_HAL_Driver/Src/stm32f7xx_hal_rcc_ex.c ****     __HAL_RCC_UART7_CONFIG(PeriphClkInit->Uart7ClockSelection);
1048:Drivers/STM32F7xx_HAL_Driver/Src/stm32f7xx_hal_rcc_ex.c ****   }
1049:Drivers/STM32F7xx_HAL_Driver/Src/stm32f7xx_hal_rcc_ex.c **** 
1050:Drivers/STM32F7xx_HAL_Driver/Src/stm32f7xx_hal_rcc_ex.c ****   /*-------------------------------------- UART8 Configuration -----------------------------------*
1051:Drivers/STM32F7xx_HAL_Driver/Src/stm32f7xx_hal_rcc_ex.c ****   if(((PeriphClkInit->PeriphClockSelection) & RCC_PERIPHCLK_UART8) == RCC_PERIPHCLK_UART8)
1052:Drivers/STM32F7xx_HAL_Driver/Src/stm32f7xx_hal_rcc_ex.c ****   {
1053:Drivers/STM32F7xx_HAL_Driver/Src/stm32f7xx_hal_rcc_ex.c ****     /* Check the parameters */
1054:Drivers/STM32F7xx_HAL_Driver/Src/stm32f7xx_hal_rcc_ex.c ****     assert_param(IS_RCC_UART8CLKSOURCE(PeriphClkInit->Uart8ClockSelection));
1055:Drivers/STM32F7xx_HAL_Driver/Src/stm32f7xx_hal_rcc_ex.c **** 
1056:Drivers/STM32F7xx_HAL_Driver/Src/stm32f7xx_hal_rcc_ex.c ****     /* Configure the UART8 clock source */
1057:Drivers/STM32F7xx_HAL_Driver/Src/stm32f7xx_hal_rcc_ex.c ****     __HAL_RCC_UART8_CONFIG(PeriphClkInit->Uart8ClockSelection);
1058:Drivers/STM32F7xx_HAL_Driver/Src/stm32f7xx_hal_rcc_ex.c ****   }
1059:Drivers/STM32F7xx_HAL_Driver/Src/stm32f7xx_hal_rcc_ex.c **** 
1060:Drivers/STM32F7xx_HAL_Driver/Src/stm32f7xx_hal_rcc_ex.c ****   /*-------------------------------------- CK48 Configuration -----------------------------------*/
1061:Drivers/STM32F7xx_HAL_Driver/Src/stm32f7xx_hal_rcc_ex.c ****   if(((PeriphClkInit->PeriphClockSelection) & RCC_PERIPHCLK_CLK48) == RCC_PERIPHCLK_CLK48)
1062:Drivers/STM32F7xx_HAL_Driver/Src/stm32f7xx_hal_rcc_ex.c ****   {
1063:Drivers/STM32F7xx_HAL_Driver/Src/stm32f7xx_hal_rcc_ex.c ****     /* Check the parameters */
1064:Drivers/STM32F7xx_HAL_Driver/Src/stm32f7xx_hal_rcc_ex.c ****     assert_param(IS_RCC_CLK48SOURCE(PeriphClkInit->Clk48ClockSelection));
1065:Drivers/STM32F7xx_HAL_Driver/Src/stm32f7xx_hal_rcc_ex.c **** 
1066:Drivers/STM32F7xx_HAL_Driver/Src/stm32f7xx_hal_rcc_ex.c ****     /* Configure the CLK48 source */
1067:Drivers/STM32F7xx_HAL_Driver/Src/stm32f7xx_hal_rcc_ex.c ****     __HAL_RCC_CLK48_CONFIG(PeriphClkInit->Clk48ClockSelection);
1068:Drivers/STM32F7xx_HAL_Driver/Src/stm32f7xx_hal_rcc_ex.c **** 
1069:Drivers/STM32F7xx_HAL_Driver/Src/stm32f7xx_hal_rcc_ex.c ****     /* Enable the PLLSAI when it's used as clock source for CK48 */
1070:Drivers/STM32F7xx_HAL_Driver/Src/stm32f7xx_hal_rcc_ex.c ****     if(PeriphClkInit->Clk48ClockSelection == RCC_CLK48SOURCE_PLLSAIP)
1071:Drivers/STM32F7xx_HAL_Driver/Src/stm32f7xx_hal_rcc_ex.c ****     {
1072:Drivers/STM32F7xx_HAL_Driver/Src/stm32f7xx_hal_rcc_ex.c ****       pllsaiused = 1;
1073:Drivers/STM32F7xx_HAL_Driver/Src/stm32f7xx_hal_rcc_ex.c ****     }
1074:Drivers/STM32F7xx_HAL_Driver/Src/stm32f7xx_hal_rcc_ex.c ****   }
1075:Drivers/STM32F7xx_HAL_Driver/Src/stm32f7xx_hal_rcc_ex.c **** 
1076:Drivers/STM32F7xx_HAL_Driver/Src/stm32f7xx_hal_rcc_ex.c ****   /*-------------------------------------- LPTIM1 Configuration -----------------------------------
1077:Drivers/STM32F7xx_HAL_Driver/Src/stm32f7xx_hal_rcc_ex.c ****   if(((PeriphClkInit->PeriphClockSelection) & RCC_PERIPHCLK_LPTIM1) == RCC_PERIPHCLK_LPTIM1)
1078:Drivers/STM32F7xx_HAL_Driver/Src/stm32f7xx_hal_rcc_ex.c ****   {
1079:Drivers/STM32F7xx_HAL_Driver/Src/stm32f7xx_hal_rcc_ex.c ****     /* Check the parameters */
1080:Drivers/STM32F7xx_HAL_Driver/Src/stm32f7xx_hal_rcc_ex.c ****     assert_param(IS_RCC_LPTIM1CLK(PeriphClkInit->Lptim1ClockSelection));
1081:Drivers/STM32F7xx_HAL_Driver/Src/stm32f7xx_hal_rcc_ex.c **** 
1082:Drivers/STM32F7xx_HAL_Driver/Src/stm32f7xx_hal_rcc_ex.c ****     /* Configure the LTPIM1 clock source */
1083:Drivers/STM32F7xx_HAL_Driver/Src/stm32f7xx_hal_rcc_ex.c ****     __HAL_RCC_LPTIM1_CONFIG(PeriphClkInit->Lptim1ClockSelection);
1084:Drivers/STM32F7xx_HAL_Driver/Src/stm32f7xx_hal_rcc_ex.c ****    }
1085:Drivers/STM32F7xx_HAL_Driver/Src/stm32f7xx_hal_rcc_ex.c **** 
ARM GAS  /tmp/ccLEMPDN.s 			page 47


1086:Drivers/STM32F7xx_HAL_Driver/Src/stm32f7xx_hal_rcc_ex.c ****   /*------------------------------------- SDMMC1 Configuration ------------------------------------
1087:Drivers/STM32F7xx_HAL_Driver/Src/stm32f7xx_hal_rcc_ex.c ****   if(((PeriphClkInit->PeriphClockSelection) & RCC_PERIPHCLK_SDMMC1) == RCC_PERIPHCLK_SDMMC1)
1088:Drivers/STM32F7xx_HAL_Driver/Src/stm32f7xx_hal_rcc_ex.c ****   {
1089:Drivers/STM32F7xx_HAL_Driver/Src/stm32f7xx_hal_rcc_ex.c ****     /* Check the parameters */
1090:Drivers/STM32F7xx_HAL_Driver/Src/stm32f7xx_hal_rcc_ex.c ****     assert_param(IS_RCC_SDMMC1CLKSOURCE(PeriphClkInit->Sdmmc1ClockSelection));
1091:Drivers/STM32F7xx_HAL_Driver/Src/stm32f7xx_hal_rcc_ex.c **** 
1092:Drivers/STM32F7xx_HAL_Driver/Src/stm32f7xx_hal_rcc_ex.c ****     /* Configure the SDMMC1 clock source */
1093:Drivers/STM32F7xx_HAL_Driver/Src/stm32f7xx_hal_rcc_ex.c ****     __HAL_RCC_SDMMC1_CONFIG(PeriphClkInit->Sdmmc1ClockSelection);
1094:Drivers/STM32F7xx_HAL_Driver/Src/stm32f7xx_hal_rcc_ex.c ****   }
1095:Drivers/STM32F7xx_HAL_Driver/Src/stm32f7xx_hal_rcc_ex.c **** 
1096:Drivers/STM32F7xx_HAL_Driver/Src/stm32f7xx_hal_rcc_ex.c ****   /*------------------------------------- SDMMC2 Configuration ------------------------------------
1097:Drivers/STM32F7xx_HAL_Driver/Src/stm32f7xx_hal_rcc_ex.c ****   if(((PeriphClkInit->PeriphClockSelection) & RCC_PERIPHCLK_SDMMC2) == RCC_PERIPHCLK_SDMMC2)
1098:Drivers/STM32F7xx_HAL_Driver/Src/stm32f7xx_hal_rcc_ex.c ****   {
1099:Drivers/STM32F7xx_HAL_Driver/Src/stm32f7xx_hal_rcc_ex.c ****     /* Check the parameters */
1100:Drivers/STM32F7xx_HAL_Driver/Src/stm32f7xx_hal_rcc_ex.c ****     assert_param(IS_RCC_SDMMC2CLKSOURCE(PeriphClkInit->Sdmmc2ClockSelection));
1101:Drivers/STM32F7xx_HAL_Driver/Src/stm32f7xx_hal_rcc_ex.c **** 
1102:Drivers/STM32F7xx_HAL_Driver/Src/stm32f7xx_hal_rcc_ex.c ****     /* Configure the SDMMC2 clock source */
1103:Drivers/STM32F7xx_HAL_Driver/Src/stm32f7xx_hal_rcc_ex.c ****     __HAL_RCC_SDMMC2_CONFIG(PeriphClkInit->Sdmmc2ClockSelection);
1104:Drivers/STM32F7xx_HAL_Driver/Src/stm32f7xx_hal_rcc_ex.c ****   }
1105:Drivers/STM32F7xx_HAL_Driver/Src/stm32f7xx_hal_rcc_ex.c **** 
1106:Drivers/STM32F7xx_HAL_Driver/Src/stm32f7xx_hal_rcc_ex.c ****   /*-------------------------------------- PLLI2S Configuration ---------------------------------*/
1107:Drivers/STM32F7xx_HAL_Driver/Src/stm32f7xx_hal_rcc_ex.c ****   /* PLLI2S is configured when a peripheral will use it as source clock : SAI1, SAI2 or I2S */
1108:Drivers/STM32F7xx_HAL_Driver/Src/stm32f7xx_hal_rcc_ex.c ****   if((plli2sused == 1) || ((PeriphClkInit->PeriphClockSelection & RCC_PERIPHCLK_PLLI2S) == RCC_PERI
1109:Drivers/STM32F7xx_HAL_Driver/Src/stm32f7xx_hal_rcc_ex.c ****   {
1110:Drivers/STM32F7xx_HAL_Driver/Src/stm32f7xx_hal_rcc_ex.c ****     /* Disable the PLLI2S */
1111:Drivers/STM32F7xx_HAL_Driver/Src/stm32f7xx_hal_rcc_ex.c ****     __HAL_RCC_PLLI2S_DISABLE();
1112:Drivers/STM32F7xx_HAL_Driver/Src/stm32f7xx_hal_rcc_ex.c **** 
1113:Drivers/STM32F7xx_HAL_Driver/Src/stm32f7xx_hal_rcc_ex.c ****     /* Get Start Tick*/
1114:Drivers/STM32F7xx_HAL_Driver/Src/stm32f7xx_hal_rcc_ex.c ****     tickstart = HAL_GetTick();
1115:Drivers/STM32F7xx_HAL_Driver/Src/stm32f7xx_hal_rcc_ex.c **** 
1116:Drivers/STM32F7xx_HAL_Driver/Src/stm32f7xx_hal_rcc_ex.c ****     /* Wait till PLLI2S is disabled */
1117:Drivers/STM32F7xx_HAL_Driver/Src/stm32f7xx_hal_rcc_ex.c ****     while(__HAL_RCC_GET_FLAG(RCC_FLAG_PLLI2SRDY)  != RESET)
1118:Drivers/STM32F7xx_HAL_Driver/Src/stm32f7xx_hal_rcc_ex.c ****     {
1119:Drivers/STM32F7xx_HAL_Driver/Src/stm32f7xx_hal_rcc_ex.c ****       if((HAL_GetTick() - tickstart) > PLLI2S_TIMEOUT_VALUE)
1120:Drivers/STM32F7xx_HAL_Driver/Src/stm32f7xx_hal_rcc_ex.c ****       {
1121:Drivers/STM32F7xx_HAL_Driver/Src/stm32f7xx_hal_rcc_ex.c ****         /* return in case of Timeout detected */
1122:Drivers/STM32F7xx_HAL_Driver/Src/stm32f7xx_hal_rcc_ex.c ****         return HAL_TIMEOUT;
1123:Drivers/STM32F7xx_HAL_Driver/Src/stm32f7xx_hal_rcc_ex.c ****       }
1124:Drivers/STM32F7xx_HAL_Driver/Src/stm32f7xx_hal_rcc_ex.c ****     }
1125:Drivers/STM32F7xx_HAL_Driver/Src/stm32f7xx_hal_rcc_ex.c **** 
1126:Drivers/STM32F7xx_HAL_Driver/Src/stm32f7xx_hal_rcc_ex.c ****     /* check for common PLLI2S Parameters */
1127:Drivers/STM32F7xx_HAL_Driver/Src/stm32f7xx_hal_rcc_ex.c ****     assert_param(IS_RCC_PLLI2SN_VALUE(PeriphClkInit->PLLI2S.PLLI2SN));
1128:Drivers/STM32F7xx_HAL_Driver/Src/stm32f7xx_hal_rcc_ex.c **** 
1129:Drivers/STM32F7xx_HAL_Driver/Src/stm32f7xx_hal_rcc_ex.c ****     /*----------------- In Case of PLLI2S is selected as source clock for I2S -------------------*/
1130:Drivers/STM32F7xx_HAL_Driver/Src/stm32f7xx_hal_rcc_ex.c ****     if(((((PeriphClkInit->PeriphClockSelection) & RCC_PERIPHCLK_I2S) == RCC_PERIPHCLK_I2S) && (Peri
1131:Drivers/STM32F7xx_HAL_Driver/Src/stm32f7xx_hal_rcc_ex.c ****     {
1132:Drivers/STM32F7xx_HAL_Driver/Src/stm32f7xx_hal_rcc_ex.c ****       /* check for Parameters */
1133:Drivers/STM32F7xx_HAL_Driver/Src/stm32f7xx_hal_rcc_ex.c ****       assert_param(IS_RCC_PLLI2SR_VALUE(PeriphClkInit->PLLI2S.PLLI2SR));
1134:Drivers/STM32F7xx_HAL_Driver/Src/stm32f7xx_hal_rcc_ex.c **** 
1135:Drivers/STM32F7xx_HAL_Driver/Src/stm32f7xx_hal_rcc_ex.c ****       /* Read PLLI2SQ value from PLLI2SCFGR register (this value is not needed for I2S configuratio
1136:Drivers/STM32F7xx_HAL_Driver/Src/stm32f7xx_hal_rcc_ex.c ****       tmpreg0 = ((RCC->PLLI2SCFGR & RCC_PLLI2SCFGR_PLLI2SQ) >> RCC_PLLI2SCFGR_PLLI2SQ_Pos);
1137:Drivers/STM32F7xx_HAL_Driver/Src/stm32f7xx_hal_rcc_ex.c ****       /* Configure the PLLI2S division factors */
1138:Drivers/STM32F7xx_HAL_Driver/Src/stm32f7xx_hal_rcc_ex.c ****       /* PLLI2S_VCO = f(VCO clock) = f(PLLI2S clock input) x (PLLI2SN/PLLM) */
1139:Drivers/STM32F7xx_HAL_Driver/Src/stm32f7xx_hal_rcc_ex.c ****       /* I2SCLK = f(PLLI2S clock output) = f(VCO clock) / PLLI2SR */
1140:Drivers/STM32F7xx_HAL_Driver/Src/stm32f7xx_hal_rcc_ex.c ****       __HAL_RCC_PLLI2S_CONFIG(PeriphClkInit->PLLI2S.PLLI2SN , tmpreg0, PeriphClkInit->PLLI2S.PLLI2S
1141:Drivers/STM32F7xx_HAL_Driver/Src/stm32f7xx_hal_rcc_ex.c ****     }
1142:Drivers/STM32F7xx_HAL_Driver/Src/stm32f7xx_hal_rcc_ex.c **** 
ARM GAS  /tmp/ccLEMPDN.s 			page 48


1143:Drivers/STM32F7xx_HAL_Driver/Src/stm32f7xx_hal_rcc_ex.c ****     /*----------------- In Case of PLLI2S is selected as source clock for SAI -------------------*/
1144:Drivers/STM32F7xx_HAL_Driver/Src/stm32f7xx_hal_rcc_ex.c ****     if(((((PeriphClkInit->PeriphClockSelection) & RCC_PERIPHCLK_SAI1) == RCC_PERIPHCLK_SAI1) && (Pe
1145:Drivers/STM32F7xx_HAL_Driver/Src/stm32f7xx_hal_rcc_ex.c ****        ((((PeriphClkInit->PeriphClockSelection) & RCC_PERIPHCLK_SAI2) == RCC_PERIPHCLK_SAI2) && (Pe
1146:Drivers/STM32F7xx_HAL_Driver/Src/stm32f7xx_hal_rcc_ex.c ****     {
1147:Drivers/STM32F7xx_HAL_Driver/Src/stm32f7xx_hal_rcc_ex.c ****       /* Check for PLLI2S Parameters */
1148:Drivers/STM32F7xx_HAL_Driver/Src/stm32f7xx_hal_rcc_ex.c ****       assert_param(IS_RCC_PLLI2SQ_VALUE(PeriphClkInit->PLLI2S.PLLI2SQ));
1149:Drivers/STM32F7xx_HAL_Driver/Src/stm32f7xx_hal_rcc_ex.c ****       /* Check for PLLI2S/DIVQ parameters */
1150:Drivers/STM32F7xx_HAL_Driver/Src/stm32f7xx_hal_rcc_ex.c ****       assert_param(IS_RCC_PLLI2S_DIVQ_VALUE(PeriphClkInit->PLLI2SDivQ));
1151:Drivers/STM32F7xx_HAL_Driver/Src/stm32f7xx_hal_rcc_ex.c **** 
1152:Drivers/STM32F7xx_HAL_Driver/Src/stm32f7xx_hal_rcc_ex.c ****       /* Read PLLI2SP and PLLI2SR values from PLLI2SCFGR register (this value is not needed for SAI
1153:Drivers/STM32F7xx_HAL_Driver/Src/stm32f7xx_hal_rcc_ex.c ****       tmpreg0 = ((RCC->PLLI2SCFGR & RCC_PLLI2SCFGR_PLLI2SR) >> RCC_PLLI2SCFGR_PLLI2SR_Pos);
1154:Drivers/STM32F7xx_HAL_Driver/Src/stm32f7xx_hal_rcc_ex.c ****       /* Configure the PLLI2S division factors */
1155:Drivers/STM32F7xx_HAL_Driver/Src/stm32f7xx_hal_rcc_ex.c ****       /* PLLI2S_VCO Input  = PLL_SOURCE/PLLM */
1156:Drivers/STM32F7xx_HAL_Driver/Src/stm32f7xx_hal_rcc_ex.c ****       /* PLLI2S_VCO Output = PLLI2S_VCO Input * PLLI2SN */
1157:Drivers/STM32F7xx_HAL_Driver/Src/stm32f7xx_hal_rcc_ex.c ****       /* SAI_CLK(first level) = PLLI2S_VCO Output/PLLI2SQ */
1158:Drivers/STM32F7xx_HAL_Driver/Src/stm32f7xx_hal_rcc_ex.c ****       __HAL_RCC_PLLI2S_CONFIG(PeriphClkInit->PLLI2S.PLLI2SN, PeriphClkInit->PLLI2S.PLLI2SQ, tmpreg0
1159:Drivers/STM32F7xx_HAL_Driver/Src/stm32f7xx_hal_rcc_ex.c **** 
1160:Drivers/STM32F7xx_HAL_Driver/Src/stm32f7xx_hal_rcc_ex.c ****       /* SAI_CLK_x = SAI_CLK(first level)/PLLI2SDIVQ */
1161:Drivers/STM32F7xx_HAL_Driver/Src/stm32f7xx_hal_rcc_ex.c ****       __HAL_RCC_PLLI2S_PLLSAICLKDIVQ_CONFIG(PeriphClkInit->PLLI2SDivQ);
1162:Drivers/STM32F7xx_HAL_Driver/Src/stm32f7xx_hal_rcc_ex.c ****     }
1163:Drivers/STM32F7xx_HAL_Driver/Src/stm32f7xx_hal_rcc_ex.c **** 
1164:Drivers/STM32F7xx_HAL_Driver/Src/stm32f7xx_hal_rcc_ex.c ****     /*----------------- In Case of PLLI2S is just selected  -----------------*/
1165:Drivers/STM32F7xx_HAL_Driver/Src/stm32f7xx_hal_rcc_ex.c ****     if((PeriphClkInit->PeriphClockSelection & RCC_PERIPHCLK_PLLI2S) == RCC_PERIPHCLK_PLLI2S)
1166:Drivers/STM32F7xx_HAL_Driver/Src/stm32f7xx_hal_rcc_ex.c ****     {
1167:Drivers/STM32F7xx_HAL_Driver/Src/stm32f7xx_hal_rcc_ex.c ****       /* Check for Parameters */
1168:Drivers/STM32F7xx_HAL_Driver/Src/stm32f7xx_hal_rcc_ex.c ****       assert_param(IS_RCC_PLLI2SR_VALUE(PeriphClkInit->PLLI2S.PLLI2SR));
1169:Drivers/STM32F7xx_HAL_Driver/Src/stm32f7xx_hal_rcc_ex.c ****       assert_param(IS_RCC_PLLI2SQ_VALUE(PeriphClkInit->PLLI2S.PLLI2SQ));
1170:Drivers/STM32F7xx_HAL_Driver/Src/stm32f7xx_hal_rcc_ex.c **** 
1171:Drivers/STM32F7xx_HAL_Driver/Src/stm32f7xx_hal_rcc_ex.c ****       /* Configure the PLLI2S division factors */
1172:Drivers/STM32F7xx_HAL_Driver/Src/stm32f7xx_hal_rcc_ex.c ****       /* PLLI2S_VCO = f(VCO clock) = f(PLLI2S clock input) x (PLLI2SN/PLLI2SM) */
1173:Drivers/STM32F7xx_HAL_Driver/Src/stm32f7xx_hal_rcc_ex.c ****       __HAL_RCC_PLLI2S_CONFIG(PeriphClkInit->PLLI2S.PLLI2SN , PeriphClkInit->PLLI2S.PLLI2SQ, Periph
1174:Drivers/STM32F7xx_HAL_Driver/Src/stm32f7xx_hal_rcc_ex.c ****     }
1175:Drivers/STM32F7xx_HAL_Driver/Src/stm32f7xx_hal_rcc_ex.c **** 
1176:Drivers/STM32F7xx_HAL_Driver/Src/stm32f7xx_hal_rcc_ex.c ****     /* Enable the PLLI2S */
1177:Drivers/STM32F7xx_HAL_Driver/Src/stm32f7xx_hal_rcc_ex.c ****     __HAL_RCC_PLLI2S_ENABLE();
1178:Drivers/STM32F7xx_HAL_Driver/Src/stm32f7xx_hal_rcc_ex.c **** 
1179:Drivers/STM32F7xx_HAL_Driver/Src/stm32f7xx_hal_rcc_ex.c ****     /* Get Start Tick*/
1180:Drivers/STM32F7xx_HAL_Driver/Src/stm32f7xx_hal_rcc_ex.c ****     tickstart = HAL_GetTick();
1181:Drivers/STM32F7xx_HAL_Driver/Src/stm32f7xx_hal_rcc_ex.c **** 
1182:Drivers/STM32F7xx_HAL_Driver/Src/stm32f7xx_hal_rcc_ex.c ****     /* Wait till PLLI2S is ready */
1183:Drivers/STM32F7xx_HAL_Driver/Src/stm32f7xx_hal_rcc_ex.c ****     while(__HAL_RCC_GET_FLAG(RCC_FLAG_PLLI2SRDY)  == RESET)
1184:Drivers/STM32F7xx_HAL_Driver/Src/stm32f7xx_hal_rcc_ex.c ****     {
1185:Drivers/STM32F7xx_HAL_Driver/Src/stm32f7xx_hal_rcc_ex.c ****       if((HAL_GetTick() - tickstart) > PLLI2S_TIMEOUT_VALUE)
1186:Drivers/STM32F7xx_HAL_Driver/Src/stm32f7xx_hal_rcc_ex.c ****       {
1187:Drivers/STM32F7xx_HAL_Driver/Src/stm32f7xx_hal_rcc_ex.c ****         /* return in case of Timeout detected */
1188:Drivers/STM32F7xx_HAL_Driver/Src/stm32f7xx_hal_rcc_ex.c ****         return HAL_TIMEOUT;
1189:Drivers/STM32F7xx_HAL_Driver/Src/stm32f7xx_hal_rcc_ex.c ****       }
1190:Drivers/STM32F7xx_HAL_Driver/Src/stm32f7xx_hal_rcc_ex.c ****     }
1191:Drivers/STM32F7xx_HAL_Driver/Src/stm32f7xx_hal_rcc_ex.c ****   }
1192:Drivers/STM32F7xx_HAL_Driver/Src/stm32f7xx_hal_rcc_ex.c **** 
1193:Drivers/STM32F7xx_HAL_Driver/Src/stm32f7xx_hal_rcc_ex.c ****   /*-------------------------------------- PLLSAI Configuration ---------------------------------*/
1194:Drivers/STM32F7xx_HAL_Driver/Src/stm32f7xx_hal_rcc_ex.c ****   /* PLLSAI is configured when a peripheral will use it as source clock : SAI1, SAI2, LTDC or CK48 
1195:Drivers/STM32F7xx_HAL_Driver/Src/stm32f7xx_hal_rcc_ex.c ****   if(pllsaiused == 1)
1196:Drivers/STM32F7xx_HAL_Driver/Src/stm32f7xx_hal_rcc_ex.c ****   {
1197:Drivers/STM32F7xx_HAL_Driver/Src/stm32f7xx_hal_rcc_ex.c ****     /* Disable PLLSAI Clock */
1198:Drivers/STM32F7xx_HAL_Driver/Src/stm32f7xx_hal_rcc_ex.c ****     __HAL_RCC_PLLSAI_DISABLE();
1199:Drivers/STM32F7xx_HAL_Driver/Src/stm32f7xx_hal_rcc_ex.c **** 
ARM GAS  /tmp/ccLEMPDN.s 			page 49


1200:Drivers/STM32F7xx_HAL_Driver/Src/stm32f7xx_hal_rcc_ex.c ****     /* Get Start Tick*/
1201:Drivers/STM32F7xx_HAL_Driver/Src/stm32f7xx_hal_rcc_ex.c ****     tickstart = HAL_GetTick();
1202:Drivers/STM32F7xx_HAL_Driver/Src/stm32f7xx_hal_rcc_ex.c **** 
1203:Drivers/STM32F7xx_HAL_Driver/Src/stm32f7xx_hal_rcc_ex.c ****     /* Wait till PLLSAI is disabled */
1204:Drivers/STM32F7xx_HAL_Driver/Src/stm32f7xx_hal_rcc_ex.c ****     while(__HAL_RCC_PLLSAI_GET_FLAG() != RESET)
1205:Drivers/STM32F7xx_HAL_Driver/Src/stm32f7xx_hal_rcc_ex.c ****     {
1206:Drivers/STM32F7xx_HAL_Driver/Src/stm32f7xx_hal_rcc_ex.c ****       if((HAL_GetTick() - tickstart) > PLLSAI_TIMEOUT_VALUE)
1207:Drivers/STM32F7xx_HAL_Driver/Src/stm32f7xx_hal_rcc_ex.c ****       {
1208:Drivers/STM32F7xx_HAL_Driver/Src/stm32f7xx_hal_rcc_ex.c ****         /* return in case of Timeout detected */
1209:Drivers/STM32F7xx_HAL_Driver/Src/stm32f7xx_hal_rcc_ex.c ****         return HAL_TIMEOUT;
1210:Drivers/STM32F7xx_HAL_Driver/Src/stm32f7xx_hal_rcc_ex.c ****       }
1211:Drivers/STM32F7xx_HAL_Driver/Src/stm32f7xx_hal_rcc_ex.c ****     }
1212:Drivers/STM32F7xx_HAL_Driver/Src/stm32f7xx_hal_rcc_ex.c **** 
1213:Drivers/STM32F7xx_HAL_Driver/Src/stm32f7xx_hal_rcc_ex.c ****     /* Check the PLLSAI division factors */
1214:Drivers/STM32F7xx_HAL_Driver/Src/stm32f7xx_hal_rcc_ex.c ****     assert_param(IS_RCC_PLLSAIN_VALUE(PeriphClkInit->PLLSAI.PLLSAIN));
1215:Drivers/STM32F7xx_HAL_Driver/Src/stm32f7xx_hal_rcc_ex.c **** 
1216:Drivers/STM32F7xx_HAL_Driver/Src/stm32f7xx_hal_rcc_ex.c ****     /*----------------- In Case of PLLSAI is selected as source clock for SAI -------------------*/
1217:Drivers/STM32F7xx_HAL_Driver/Src/stm32f7xx_hal_rcc_ex.c ****     if(((((PeriphClkInit->PeriphClockSelection) & RCC_PERIPHCLK_SAI1) == RCC_PERIPHCLK_SAI1) && (Pe
1218:Drivers/STM32F7xx_HAL_Driver/Src/stm32f7xx_hal_rcc_ex.c ****        ((((PeriphClkInit->PeriphClockSelection) & RCC_PERIPHCLK_SAI2) == RCC_PERIPHCLK_SAI2) && (Pe
1219:Drivers/STM32F7xx_HAL_Driver/Src/stm32f7xx_hal_rcc_ex.c ****     {
1220:Drivers/STM32F7xx_HAL_Driver/Src/stm32f7xx_hal_rcc_ex.c ****       /* check for PLLSAIQ Parameter */
1221:Drivers/STM32F7xx_HAL_Driver/Src/stm32f7xx_hal_rcc_ex.c ****       assert_param(IS_RCC_PLLSAIQ_VALUE(PeriphClkInit->PLLSAI.PLLSAIQ));
1222:Drivers/STM32F7xx_HAL_Driver/Src/stm32f7xx_hal_rcc_ex.c ****       /* check for PLLSAI/DIVQ Parameter */
1223:Drivers/STM32F7xx_HAL_Driver/Src/stm32f7xx_hal_rcc_ex.c ****       assert_param(IS_RCC_PLLSAI_DIVQ_VALUE(PeriphClkInit->PLLSAIDivQ));
1224:Drivers/STM32F7xx_HAL_Driver/Src/stm32f7xx_hal_rcc_ex.c **** 
1225:Drivers/STM32F7xx_HAL_Driver/Src/stm32f7xx_hal_rcc_ex.c ****       /* Read PLLSAIP value from PLLSAICFGR register (this value is not needed for SAI configuratio
1226:Drivers/STM32F7xx_HAL_Driver/Src/stm32f7xx_hal_rcc_ex.c ****       tmpreg0 = ((RCC->PLLSAICFGR & RCC_PLLSAICFGR_PLLSAIP) >> RCC_PLLSAICFGR_PLLSAIP_Pos);
1227:Drivers/STM32F7xx_HAL_Driver/Src/stm32f7xx_hal_rcc_ex.c ****       /* PLLSAI_VCO Input  = PLL_SOURCE/PLLM */
1228:Drivers/STM32F7xx_HAL_Driver/Src/stm32f7xx_hal_rcc_ex.c ****       /* PLLSAI_VCO Output = PLLSAI_VCO Input * PLLSAIN */
1229:Drivers/STM32F7xx_HAL_Driver/Src/stm32f7xx_hal_rcc_ex.c ****       /* SAI_CLK(first level) = PLLSAI_VCO Output/PLLSAIQ */
1230:Drivers/STM32F7xx_HAL_Driver/Src/stm32f7xx_hal_rcc_ex.c ****       __HAL_RCC_PLLSAI_CONFIG(PeriphClkInit->PLLSAI.PLLSAIN , tmpreg0, PeriphClkInit->PLLSAI.PLLSAI
1231:Drivers/STM32F7xx_HAL_Driver/Src/stm32f7xx_hal_rcc_ex.c **** 
1232:Drivers/STM32F7xx_HAL_Driver/Src/stm32f7xx_hal_rcc_ex.c ****       /* SAI_CLK_x = SAI_CLK(first level)/PLLSAIDIVQ */
1233:Drivers/STM32F7xx_HAL_Driver/Src/stm32f7xx_hal_rcc_ex.c ****       __HAL_RCC_PLLSAI_PLLSAICLKDIVQ_CONFIG(PeriphClkInit->PLLSAIDivQ);
1234:Drivers/STM32F7xx_HAL_Driver/Src/stm32f7xx_hal_rcc_ex.c ****     }
1235:Drivers/STM32F7xx_HAL_Driver/Src/stm32f7xx_hal_rcc_ex.c **** 
1236:Drivers/STM32F7xx_HAL_Driver/Src/stm32f7xx_hal_rcc_ex.c ****     /*----------------- In Case of PLLSAI is selected as source clock for CLK48 -------------------
1237:Drivers/STM32F7xx_HAL_Driver/Src/stm32f7xx_hal_rcc_ex.c ****     /* In Case of PLLI2S is selected as source clock for CK48 */
1238:Drivers/STM32F7xx_HAL_Driver/Src/stm32f7xx_hal_rcc_ex.c ****     if((((PeriphClkInit->PeriphClockSelection) & RCC_PERIPHCLK_CLK48) == RCC_PERIPHCLK_CLK48) && (P
1239:Drivers/STM32F7xx_HAL_Driver/Src/stm32f7xx_hal_rcc_ex.c ****     {
1240:Drivers/STM32F7xx_HAL_Driver/Src/stm32f7xx_hal_rcc_ex.c ****       /* check for Parameters */
1241:Drivers/STM32F7xx_HAL_Driver/Src/stm32f7xx_hal_rcc_ex.c ****       assert_param(IS_RCC_PLLSAIP_VALUE(PeriphClkInit->PLLSAI.PLLSAIP));
1242:Drivers/STM32F7xx_HAL_Driver/Src/stm32f7xx_hal_rcc_ex.c ****       /* Read PLLSAIQ and PLLSAIR value from PLLSAICFGR register (this value is not needed for CK48
1243:Drivers/STM32F7xx_HAL_Driver/Src/stm32f7xx_hal_rcc_ex.c ****       tmpreg0 = ((RCC->PLLSAICFGR & RCC_PLLSAICFGR_PLLSAIQ) >> RCC_PLLSAICFGR_PLLSAIQ_Pos);
1244:Drivers/STM32F7xx_HAL_Driver/Src/stm32f7xx_hal_rcc_ex.c **** 
1245:Drivers/STM32F7xx_HAL_Driver/Src/stm32f7xx_hal_rcc_ex.c ****       /* Configure the PLLSAI division factors */
1246:Drivers/STM32F7xx_HAL_Driver/Src/stm32f7xx_hal_rcc_ex.c ****       /* PLLSAI_VCO = f(VCO clock) = f(PLLSAI clock input) x (PLLI2SN/PLLM) */
1247:Drivers/STM32F7xx_HAL_Driver/Src/stm32f7xx_hal_rcc_ex.c ****       /* 48CLK = f(PLLSAI clock output) = f(VCO clock) / PLLSAIP */
1248:Drivers/STM32F7xx_HAL_Driver/Src/stm32f7xx_hal_rcc_ex.c ****       __HAL_RCC_PLLSAI_CONFIG(PeriphClkInit->PLLSAI.PLLSAIN , PeriphClkInit->PLLSAI.PLLSAIP, tmpreg
1249:Drivers/STM32F7xx_HAL_Driver/Src/stm32f7xx_hal_rcc_ex.c ****     }
1250:Drivers/STM32F7xx_HAL_Driver/Src/stm32f7xx_hal_rcc_ex.c **** 
1251:Drivers/STM32F7xx_HAL_Driver/Src/stm32f7xx_hal_rcc_ex.c ****     /* Enable PLLSAI Clock */
1252:Drivers/STM32F7xx_HAL_Driver/Src/stm32f7xx_hal_rcc_ex.c ****     __HAL_RCC_PLLSAI_ENABLE();
1253:Drivers/STM32F7xx_HAL_Driver/Src/stm32f7xx_hal_rcc_ex.c **** 
1254:Drivers/STM32F7xx_HAL_Driver/Src/stm32f7xx_hal_rcc_ex.c ****     /* Get Start Tick*/
1255:Drivers/STM32F7xx_HAL_Driver/Src/stm32f7xx_hal_rcc_ex.c ****     tickstart = HAL_GetTick();
1256:Drivers/STM32F7xx_HAL_Driver/Src/stm32f7xx_hal_rcc_ex.c **** 
ARM GAS  /tmp/ccLEMPDN.s 			page 50


1257:Drivers/STM32F7xx_HAL_Driver/Src/stm32f7xx_hal_rcc_ex.c ****     /* Wait till PLLSAI is ready */
1258:Drivers/STM32F7xx_HAL_Driver/Src/stm32f7xx_hal_rcc_ex.c ****     while(__HAL_RCC_PLLSAI_GET_FLAG() == RESET)
1259:Drivers/STM32F7xx_HAL_Driver/Src/stm32f7xx_hal_rcc_ex.c ****     {
1260:Drivers/STM32F7xx_HAL_Driver/Src/stm32f7xx_hal_rcc_ex.c ****       if((HAL_GetTick() - tickstart) > PLLSAI_TIMEOUT_VALUE)
1261:Drivers/STM32F7xx_HAL_Driver/Src/stm32f7xx_hal_rcc_ex.c ****       {
1262:Drivers/STM32F7xx_HAL_Driver/Src/stm32f7xx_hal_rcc_ex.c ****         /* return in case of Timeout detected */
1263:Drivers/STM32F7xx_HAL_Driver/Src/stm32f7xx_hal_rcc_ex.c ****         return HAL_TIMEOUT;
1264:Drivers/STM32F7xx_HAL_Driver/Src/stm32f7xx_hal_rcc_ex.c ****       }
1265:Drivers/STM32F7xx_HAL_Driver/Src/stm32f7xx_hal_rcc_ex.c ****     }
1266:Drivers/STM32F7xx_HAL_Driver/Src/stm32f7xx_hal_rcc_ex.c ****   }
1267:Drivers/STM32F7xx_HAL_Driver/Src/stm32f7xx_hal_rcc_ex.c ****   return HAL_OK;
1268:Drivers/STM32F7xx_HAL_Driver/Src/stm32f7xx_hal_rcc_ex.c **** }
1269:Drivers/STM32F7xx_HAL_Driver/Src/stm32f7xx_hal_rcc_ex.c **** 
1270:Drivers/STM32F7xx_HAL_Driver/Src/stm32f7xx_hal_rcc_ex.c **** /**
1271:Drivers/STM32F7xx_HAL_Driver/Src/stm32f7xx_hal_rcc_ex.c ****   * @brief  Get the RCC_PeriphCLKInitTypeDef according to the internal
1272:Drivers/STM32F7xx_HAL_Driver/Src/stm32f7xx_hal_rcc_ex.c ****   *         RCC configuration registers.
1273:Drivers/STM32F7xx_HAL_Driver/Src/stm32f7xx_hal_rcc_ex.c ****   * @param  PeriphClkInit pointer to the configured RCC_PeriphCLKInitTypeDef structure
1274:Drivers/STM32F7xx_HAL_Driver/Src/stm32f7xx_hal_rcc_ex.c ****   * @retval None
1275:Drivers/STM32F7xx_HAL_Driver/Src/stm32f7xx_hal_rcc_ex.c ****   */
1276:Drivers/STM32F7xx_HAL_Driver/Src/stm32f7xx_hal_rcc_ex.c **** void HAL_RCCEx_GetPeriphCLKConfig(RCC_PeriphCLKInitTypeDef  *PeriphClkInit)
1277:Drivers/STM32F7xx_HAL_Driver/Src/stm32f7xx_hal_rcc_ex.c **** {
1278:Drivers/STM32F7xx_HAL_Driver/Src/stm32f7xx_hal_rcc_ex.c ****   uint32_t tempreg = 0;
1279:Drivers/STM32F7xx_HAL_Driver/Src/stm32f7xx_hal_rcc_ex.c **** 
1280:Drivers/STM32F7xx_HAL_Driver/Src/stm32f7xx_hal_rcc_ex.c ****   /* Set all possible values for the extended clock type parameter------------*/
1281:Drivers/STM32F7xx_HAL_Driver/Src/stm32f7xx_hal_rcc_ex.c ****   PeriphClkInit->PeriphClockSelection = RCC_PERIPHCLK_I2S      | RCC_PERIPHCLK_LPTIM1   |\
1282:Drivers/STM32F7xx_HAL_Driver/Src/stm32f7xx_hal_rcc_ex.c ****                                         RCC_PERIPHCLK_SAI1     | RCC_PERIPHCLK_SAI2     |\
1283:Drivers/STM32F7xx_HAL_Driver/Src/stm32f7xx_hal_rcc_ex.c ****                                         RCC_PERIPHCLK_TIM      | RCC_PERIPHCLK_RTC      |\
1284:Drivers/STM32F7xx_HAL_Driver/Src/stm32f7xx_hal_rcc_ex.c ****                                         RCC_PERIPHCLK_I2C1     | RCC_PERIPHCLK_I2C2     |\
1285:Drivers/STM32F7xx_HAL_Driver/Src/stm32f7xx_hal_rcc_ex.c ****                                         RCC_PERIPHCLK_I2C3     | RCC_PERIPHCLK_USART1   |\
1286:Drivers/STM32F7xx_HAL_Driver/Src/stm32f7xx_hal_rcc_ex.c ****                                         RCC_PERIPHCLK_USART2   | RCC_PERIPHCLK_USART3   |\
1287:Drivers/STM32F7xx_HAL_Driver/Src/stm32f7xx_hal_rcc_ex.c ****                                         RCC_PERIPHCLK_UART4    | RCC_PERIPHCLK_UART5    |\
1288:Drivers/STM32F7xx_HAL_Driver/Src/stm32f7xx_hal_rcc_ex.c ****                                         RCC_PERIPHCLK_USART6   | RCC_PERIPHCLK_UART7    |\
1289:Drivers/STM32F7xx_HAL_Driver/Src/stm32f7xx_hal_rcc_ex.c ****                                         RCC_PERIPHCLK_UART8    | RCC_PERIPHCLK_SDMMC1   |\
1290:Drivers/STM32F7xx_HAL_Driver/Src/stm32f7xx_hal_rcc_ex.c ****                                         RCC_PERIPHCLK_CLK48    | RCC_PERIPHCLK_SDMMC2;
1291:Drivers/STM32F7xx_HAL_Driver/Src/stm32f7xx_hal_rcc_ex.c **** 
1292:Drivers/STM32F7xx_HAL_Driver/Src/stm32f7xx_hal_rcc_ex.c ****   /* Get the PLLI2S Clock configuration -----------------------------------------------*/
1293:Drivers/STM32F7xx_HAL_Driver/Src/stm32f7xx_hal_rcc_ex.c ****   PeriphClkInit->PLLI2S.PLLI2SN = (uint32_t)((RCC->PLLI2SCFGR & RCC_PLLI2SCFGR_PLLI2SN) >> RCC_PLLI
1294:Drivers/STM32F7xx_HAL_Driver/Src/stm32f7xx_hal_rcc_ex.c ****   PeriphClkInit->PLLI2S.PLLI2SQ = (uint32_t)((RCC->PLLI2SCFGR & RCC_PLLI2SCFGR_PLLI2SQ) >> RCC_PLLI
1295:Drivers/STM32F7xx_HAL_Driver/Src/stm32f7xx_hal_rcc_ex.c ****   PeriphClkInit->PLLI2S.PLLI2SR = (uint32_t)((RCC->PLLI2SCFGR & RCC_PLLI2SCFGR_PLLI2SR) >> RCC_PLLI
1296:Drivers/STM32F7xx_HAL_Driver/Src/stm32f7xx_hal_rcc_ex.c **** 
1297:Drivers/STM32F7xx_HAL_Driver/Src/stm32f7xx_hal_rcc_ex.c ****   /* Get the PLLSAI Clock configuration -----------------------------------------------*/
1298:Drivers/STM32F7xx_HAL_Driver/Src/stm32f7xx_hal_rcc_ex.c ****   PeriphClkInit->PLLSAI.PLLSAIN = (uint32_t)((RCC->PLLSAICFGR & RCC_PLLSAICFGR_PLLSAIN) >> RCC_PLLS
1299:Drivers/STM32F7xx_HAL_Driver/Src/stm32f7xx_hal_rcc_ex.c ****   PeriphClkInit->PLLSAI.PLLSAIP = (uint32_t)((RCC->PLLSAICFGR & RCC_PLLSAICFGR_PLLSAIP) >> RCC_PLLS
1300:Drivers/STM32F7xx_HAL_Driver/Src/stm32f7xx_hal_rcc_ex.c ****   PeriphClkInit->PLLSAI.PLLSAIQ = (uint32_t)((RCC->PLLSAICFGR & RCC_PLLSAICFGR_PLLSAIQ) >> RCC_PLLS
1301:Drivers/STM32F7xx_HAL_Driver/Src/stm32f7xx_hal_rcc_ex.c **** 
1302:Drivers/STM32F7xx_HAL_Driver/Src/stm32f7xx_hal_rcc_ex.c ****   /* Get the PLLSAI/PLLI2S division factors -------------------------------------------*/
1303:Drivers/STM32F7xx_HAL_Driver/Src/stm32f7xx_hal_rcc_ex.c ****   PeriphClkInit->PLLI2SDivQ = (uint32_t)((RCC->DCKCFGR1 & RCC_DCKCFGR1_PLLI2SDIVQ) >> RCC_DCKCFGR1_
1304:Drivers/STM32F7xx_HAL_Driver/Src/stm32f7xx_hal_rcc_ex.c ****   PeriphClkInit->PLLSAIDivQ = (uint32_t)((RCC->DCKCFGR1 & RCC_DCKCFGR1_PLLSAIDIVQ) >> RCC_DCKCFGR1_
1305:Drivers/STM32F7xx_HAL_Driver/Src/stm32f7xx_hal_rcc_ex.c **** 
1306:Drivers/STM32F7xx_HAL_Driver/Src/stm32f7xx_hal_rcc_ex.c ****   /* Get the SAI1 clock configuration ----------------------------------------------*/
1307:Drivers/STM32F7xx_HAL_Driver/Src/stm32f7xx_hal_rcc_ex.c ****   PeriphClkInit->Sai1ClockSelection = __HAL_RCC_GET_SAI1_SOURCE();
1308:Drivers/STM32F7xx_HAL_Driver/Src/stm32f7xx_hal_rcc_ex.c **** 
1309:Drivers/STM32F7xx_HAL_Driver/Src/stm32f7xx_hal_rcc_ex.c ****   /* Get the SAI2 clock configuration ----------------------------------------------*/
1310:Drivers/STM32F7xx_HAL_Driver/Src/stm32f7xx_hal_rcc_ex.c ****   PeriphClkInit->Sai2ClockSelection = __HAL_RCC_GET_SAI2_SOURCE();
1311:Drivers/STM32F7xx_HAL_Driver/Src/stm32f7xx_hal_rcc_ex.c **** 
1312:Drivers/STM32F7xx_HAL_Driver/Src/stm32f7xx_hal_rcc_ex.c ****   /* Get the I2S clock configuration ------------------------------------------*/
1313:Drivers/STM32F7xx_HAL_Driver/Src/stm32f7xx_hal_rcc_ex.c ****   PeriphClkInit->I2sClockSelection = __HAL_RCC_GET_I2SCLKSOURCE();
ARM GAS  /tmp/ccLEMPDN.s 			page 51


1314:Drivers/STM32F7xx_HAL_Driver/Src/stm32f7xx_hal_rcc_ex.c **** 
1315:Drivers/STM32F7xx_HAL_Driver/Src/stm32f7xx_hal_rcc_ex.c ****   /* Get the I2C1 clock configuration ------------------------------------------*/
1316:Drivers/STM32F7xx_HAL_Driver/Src/stm32f7xx_hal_rcc_ex.c ****   PeriphClkInit->I2c1ClockSelection = __HAL_RCC_GET_I2C1_SOURCE();
1317:Drivers/STM32F7xx_HAL_Driver/Src/stm32f7xx_hal_rcc_ex.c **** 
1318:Drivers/STM32F7xx_HAL_Driver/Src/stm32f7xx_hal_rcc_ex.c ****   /* Get the I2C2 clock configuration ------------------------------------------*/
1319:Drivers/STM32F7xx_HAL_Driver/Src/stm32f7xx_hal_rcc_ex.c ****   PeriphClkInit->I2c2ClockSelection = __HAL_RCC_GET_I2C2_SOURCE();
1320:Drivers/STM32F7xx_HAL_Driver/Src/stm32f7xx_hal_rcc_ex.c **** 
1321:Drivers/STM32F7xx_HAL_Driver/Src/stm32f7xx_hal_rcc_ex.c ****   /* Get the I2C3 clock configuration ------------------------------------------*/
1322:Drivers/STM32F7xx_HAL_Driver/Src/stm32f7xx_hal_rcc_ex.c ****   PeriphClkInit->I2c3ClockSelection = __HAL_RCC_GET_I2C3_SOURCE();
1323:Drivers/STM32F7xx_HAL_Driver/Src/stm32f7xx_hal_rcc_ex.c **** 
1324:Drivers/STM32F7xx_HAL_Driver/Src/stm32f7xx_hal_rcc_ex.c ****   /* Get the USART1 clock configuration ------------------------------------------*/
1325:Drivers/STM32F7xx_HAL_Driver/Src/stm32f7xx_hal_rcc_ex.c ****   PeriphClkInit->Usart1ClockSelection = __HAL_RCC_GET_USART1_SOURCE();
1326:Drivers/STM32F7xx_HAL_Driver/Src/stm32f7xx_hal_rcc_ex.c **** 
1327:Drivers/STM32F7xx_HAL_Driver/Src/stm32f7xx_hal_rcc_ex.c ****   /* Get the USART2 clock configuration ------------------------------------------*/
1328:Drivers/STM32F7xx_HAL_Driver/Src/stm32f7xx_hal_rcc_ex.c ****   PeriphClkInit->Usart2ClockSelection = __HAL_RCC_GET_USART2_SOURCE();
1329:Drivers/STM32F7xx_HAL_Driver/Src/stm32f7xx_hal_rcc_ex.c **** 
1330:Drivers/STM32F7xx_HAL_Driver/Src/stm32f7xx_hal_rcc_ex.c ****   /* Get the USART3 clock configuration ------------------------------------------*/
1331:Drivers/STM32F7xx_HAL_Driver/Src/stm32f7xx_hal_rcc_ex.c ****   PeriphClkInit->Usart3ClockSelection = __HAL_RCC_GET_USART3_SOURCE();
1332:Drivers/STM32F7xx_HAL_Driver/Src/stm32f7xx_hal_rcc_ex.c **** 
1333:Drivers/STM32F7xx_HAL_Driver/Src/stm32f7xx_hal_rcc_ex.c ****   /* Get the UART4 clock configuration ------------------------------------------*/
1334:Drivers/STM32F7xx_HAL_Driver/Src/stm32f7xx_hal_rcc_ex.c ****   PeriphClkInit->Uart4ClockSelection = __HAL_RCC_GET_UART4_SOURCE();
1335:Drivers/STM32F7xx_HAL_Driver/Src/stm32f7xx_hal_rcc_ex.c **** 
1336:Drivers/STM32F7xx_HAL_Driver/Src/stm32f7xx_hal_rcc_ex.c ****   /* Get the UART5 clock configuration ------------------------------------------*/
1337:Drivers/STM32F7xx_HAL_Driver/Src/stm32f7xx_hal_rcc_ex.c ****   PeriphClkInit->Uart5ClockSelection = __HAL_RCC_GET_UART5_SOURCE();
1338:Drivers/STM32F7xx_HAL_Driver/Src/stm32f7xx_hal_rcc_ex.c **** 
1339:Drivers/STM32F7xx_HAL_Driver/Src/stm32f7xx_hal_rcc_ex.c ****   /* Get the USART6 clock configuration ------------------------------------------*/
1340:Drivers/STM32F7xx_HAL_Driver/Src/stm32f7xx_hal_rcc_ex.c ****   PeriphClkInit->Usart6ClockSelection = __HAL_RCC_GET_USART6_SOURCE();
1341:Drivers/STM32F7xx_HAL_Driver/Src/stm32f7xx_hal_rcc_ex.c **** 
1342:Drivers/STM32F7xx_HAL_Driver/Src/stm32f7xx_hal_rcc_ex.c ****   /* Get the UART7 clock configuration ------------------------------------------*/
1343:Drivers/STM32F7xx_HAL_Driver/Src/stm32f7xx_hal_rcc_ex.c ****   PeriphClkInit->Uart7ClockSelection = __HAL_RCC_GET_UART7_SOURCE();
1344:Drivers/STM32F7xx_HAL_Driver/Src/stm32f7xx_hal_rcc_ex.c **** 
1345:Drivers/STM32F7xx_HAL_Driver/Src/stm32f7xx_hal_rcc_ex.c ****   /* Get the UART8 clock configuration ------------------------------------------*/
1346:Drivers/STM32F7xx_HAL_Driver/Src/stm32f7xx_hal_rcc_ex.c ****   PeriphClkInit->Uart8ClockSelection = __HAL_RCC_GET_UART8_SOURCE();
1347:Drivers/STM32F7xx_HAL_Driver/Src/stm32f7xx_hal_rcc_ex.c **** 
1348:Drivers/STM32F7xx_HAL_Driver/Src/stm32f7xx_hal_rcc_ex.c ****   /* Get the LPTIM1 clock configuration ------------------------------------------*/
1349:Drivers/STM32F7xx_HAL_Driver/Src/stm32f7xx_hal_rcc_ex.c ****   PeriphClkInit->Lptim1ClockSelection = __HAL_RCC_GET_LPTIM1_SOURCE();
1350:Drivers/STM32F7xx_HAL_Driver/Src/stm32f7xx_hal_rcc_ex.c **** 
1351:Drivers/STM32F7xx_HAL_Driver/Src/stm32f7xx_hal_rcc_ex.c ****   /* Get the CK48 clock configuration -----------------------------------------------*/
1352:Drivers/STM32F7xx_HAL_Driver/Src/stm32f7xx_hal_rcc_ex.c ****   PeriphClkInit->Clk48ClockSelection = __HAL_RCC_GET_CLK48_SOURCE();
1353:Drivers/STM32F7xx_HAL_Driver/Src/stm32f7xx_hal_rcc_ex.c **** 
1354:Drivers/STM32F7xx_HAL_Driver/Src/stm32f7xx_hal_rcc_ex.c ****   /* Get the SDMMC1 clock configuration -----------------------------------------------*/
1355:Drivers/STM32F7xx_HAL_Driver/Src/stm32f7xx_hal_rcc_ex.c ****   PeriphClkInit->Sdmmc1ClockSelection = __HAL_RCC_GET_SDMMC1_SOURCE();
1356:Drivers/STM32F7xx_HAL_Driver/Src/stm32f7xx_hal_rcc_ex.c **** 
1357:Drivers/STM32F7xx_HAL_Driver/Src/stm32f7xx_hal_rcc_ex.c ****   /* Get the SDMMC2 clock configuration -----------------------------------------------*/
1358:Drivers/STM32F7xx_HAL_Driver/Src/stm32f7xx_hal_rcc_ex.c ****   PeriphClkInit->Sdmmc2ClockSelection = __HAL_RCC_GET_SDMMC2_SOURCE();
1359:Drivers/STM32F7xx_HAL_Driver/Src/stm32f7xx_hal_rcc_ex.c **** 
1360:Drivers/STM32F7xx_HAL_Driver/Src/stm32f7xx_hal_rcc_ex.c ****   /* Get the RTC Clock configuration -----------------------------------------------*/
1361:Drivers/STM32F7xx_HAL_Driver/Src/stm32f7xx_hal_rcc_ex.c ****   tempreg = (RCC->CFGR & RCC_CFGR_RTCPRE);
1362:Drivers/STM32F7xx_HAL_Driver/Src/stm32f7xx_hal_rcc_ex.c ****   PeriphClkInit->RTCClockSelection = (uint32_t)((tempreg) | (RCC->BDCR & RCC_BDCR_RTCSEL));
1363:Drivers/STM32F7xx_HAL_Driver/Src/stm32f7xx_hal_rcc_ex.c **** 
1364:Drivers/STM32F7xx_HAL_Driver/Src/stm32f7xx_hal_rcc_ex.c ****   /* Get the TIM Prescaler configuration --------------------------------------------*/
1365:Drivers/STM32F7xx_HAL_Driver/Src/stm32f7xx_hal_rcc_ex.c ****   if ((RCC->DCKCFGR1 & RCC_DCKCFGR1_TIMPRE) == RESET)
1366:Drivers/STM32F7xx_HAL_Driver/Src/stm32f7xx_hal_rcc_ex.c ****   {
1367:Drivers/STM32F7xx_HAL_Driver/Src/stm32f7xx_hal_rcc_ex.c ****     PeriphClkInit->TIMPresSelection = RCC_TIMPRES_DESACTIVATED;
1368:Drivers/STM32F7xx_HAL_Driver/Src/stm32f7xx_hal_rcc_ex.c ****   }
1369:Drivers/STM32F7xx_HAL_Driver/Src/stm32f7xx_hal_rcc_ex.c ****   else
1370:Drivers/STM32F7xx_HAL_Driver/Src/stm32f7xx_hal_rcc_ex.c ****   {
ARM GAS  /tmp/ccLEMPDN.s 			page 52


1371:Drivers/STM32F7xx_HAL_Driver/Src/stm32f7xx_hal_rcc_ex.c ****     PeriphClkInit->TIMPresSelection = RCC_TIMPRES_ACTIVATED;
1372:Drivers/STM32F7xx_HAL_Driver/Src/stm32f7xx_hal_rcc_ex.c ****   }
1373:Drivers/STM32F7xx_HAL_Driver/Src/stm32f7xx_hal_rcc_ex.c **** }
1374:Drivers/STM32F7xx_HAL_Driver/Src/stm32f7xx_hal_rcc_ex.c **** #endif /* STM32F722xx || STM32F723xx || STM32F732xx || STM32F733xx || STM32F730xx */
1375:Drivers/STM32F7xx_HAL_Driver/Src/stm32f7xx_hal_rcc_ex.c **** 
1376:Drivers/STM32F7xx_HAL_Driver/Src/stm32f7xx_hal_rcc_ex.c **** /**
1377:Drivers/STM32F7xx_HAL_Driver/Src/stm32f7xx_hal_rcc_ex.c ****   * @brief  Return the peripheral clock frequency for a given peripheral(SAI..)
1378:Drivers/STM32F7xx_HAL_Driver/Src/stm32f7xx_hal_rcc_ex.c ****   * @note   Return 0 if peripheral clock identifier not managed by this API
1379:Drivers/STM32F7xx_HAL_Driver/Src/stm32f7xx_hal_rcc_ex.c ****   * @param  PeriphClk Peripheral clock identifier
1380:Drivers/STM32F7xx_HAL_Driver/Src/stm32f7xx_hal_rcc_ex.c ****   *         This parameter can be one of the following values:
1381:Drivers/STM32F7xx_HAL_Driver/Src/stm32f7xx_hal_rcc_ex.c ****   *            @arg RCC_PERIPHCLK_SAI1: SAI1 peripheral clock
1382:Drivers/STM32F7xx_HAL_Driver/Src/stm32f7xx_hal_rcc_ex.c ****   *            @arg RCC_PERIPHCLK_SAI2: SAI2 peripheral clock
1383:Drivers/STM32F7xx_HAL_Driver/Src/stm32f7xx_hal_rcc_ex.c ****   * @retval Frequency in KHz
1384:Drivers/STM32F7xx_HAL_Driver/Src/stm32f7xx_hal_rcc_ex.c ****   */
1385:Drivers/STM32F7xx_HAL_Driver/Src/stm32f7xx_hal_rcc_ex.c **** uint32_t HAL_RCCEx_GetPeriphCLKFreq(uint32_t PeriphClk)
1386:Drivers/STM32F7xx_HAL_Driver/Src/stm32f7xx_hal_rcc_ex.c **** {
 1405              		.loc 1 1386 1 is_stmt 1 view -0
 1406              		.cfi_startproc
 1407              		@ args = 0, pretend = 0, frame = 0
 1408              		@ frame_needed = 0, uses_anonymous_args = 0
 1409              		@ link register save eliminated.
 1410              		.loc 1 1386 1 is_stmt 0 view .LVU508
 1411 0000 10B4     		push	{r4}
 1412              	.LCFI4:
 1413              		.cfi_def_cfa_offset 4
 1414              		.cfi_offset 4, -4
 1415 0002 0346     		mov	r3, r0
1387:Drivers/STM32F7xx_HAL_Driver/Src/stm32f7xx_hal_rcc_ex.c ****   uint32_t tmpreg = 0;
 1416              		.loc 1 1387 3 is_stmt 1 view .LVU509
 1417              	.LVL80:
1388:Drivers/STM32F7xx_HAL_Driver/Src/stm32f7xx_hal_rcc_ex.c ****   /* This variable is used to store the SAI clock frequency (value in Hz) */
1389:Drivers/STM32F7xx_HAL_Driver/Src/stm32f7xx_hal_rcc_ex.c ****   uint32_t frequency = 0;
 1418              		.loc 1 1389 3 view .LVU510
1390:Drivers/STM32F7xx_HAL_Driver/Src/stm32f7xx_hal_rcc_ex.c ****   /* This variable is used to store the VCO Input (value in Hz) */
1391:Drivers/STM32F7xx_HAL_Driver/Src/stm32f7xx_hal_rcc_ex.c ****   uint32_t vcoinput = 0;
 1419              		.loc 1 1391 3 view .LVU511
1392:Drivers/STM32F7xx_HAL_Driver/Src/stm32f7xx_hal_rcc_ex.c ****   /* This variable is used to store the SAI clock source */
1393:Drivers/STM32F7xx_HAL_Driver/Src/stm32f7xx_hal_rcc_ex.c ****   uint32_t saiclocksource = 0;
 1420              		.loc 1 1393 3 view .LVU512
1394:Drivers/STM32F7xx_HAL_Driver/Src/stm32f7xx_hal_rcc_ex.c **** 
1395:Drivers/STM32F7xx_HAL_Driver/Src/stm32f7xx_hal_rcc_ex.c ****   if (PeriphClk == RCC_PERIPHCLK_SAI1)
 1421              		.loc 1 1395 3 view .LVU513
 1422              		.loc 1 1395 6 is_stmt 0 view .LVU514
 1423 0004 B0F5002F 		cmp	r0, #524288
 1424 0008 06D0     		beq	.L121
1389:Drivers/STM32F7xx_HAL_Driver/Src/stm32f7xx_hal_rcc_ex.c ****   /* This variable is used to store the VCO Input (value in Hz) */
 1425              		.loc 1 1389 12 view .LVU515
 1426 000a 0020     		movs	r0, #0
 1427              	.LVL81:
 1428              	.L97:
1396:Drivers/STM32F7xx_HAL_Driver/Src/stm32f7xx_hal_rcc_ex.c ****   {
1397:Drivers/STM32F7xx_HAL_Driver/Src/stm32f7xx_hal_rcc_ex.c ****     saiclocksource = RCC->DCKCFGR1;
1398:Drivers/STM32F7xx_HAL_Driver/Src/stm32f7xx_hal_rcc_ex.c ****     saiclocksource &= RCC_DCKCFGR1_SAI1SEL;
1399:Drivers/STM32F7xx_HAL_Driver/Src/stm32f7xx_hal_rcc_ex.c ****     switch (saiclocksource)
1400:Drivers/STM32F7xx_HAL_Driver/Src/stm32f7xx_hal_rcc_ex.c ****     {
1401:Drivers/STM32F7xx_HAL_Driver/Src/stm32f7xx_hal_rcc_ex.c ****     case 0: /* PLLSAI is the clock source for SAI1 */
1402:Drivers/STM32F7xx_HAL_Driver/Src/stm32f7xx_hal_rcc_ex.c ****       {
ARM GAS  /tmp/ccLEMPDN.s 			page 53


1403:Drivers/STM32F7xx_HAL_Driver/Src/stm32f7xx_hal_rcc_ex.c ****         /* Configure the PLLSAI division factor */
1404:Drivers/STM32F7xx_HAL_Driver/Src/stm32f7xx_hal_rcc_ex.c ****         /* PLLSAI_VCO Input  = PLL_SOURCE/PLLM */
1405:Drivers/STM32F7xx_HAL_Driver/Src/stm32f7xx_hal_rcc_ex.c ****         if((RCC->PLLCFGR & RCC_PLLCFGR_PLLSRC) == RCC_PLLSOURCE_HSI)
1406:Drivers/STM32F7xx_HAL_Driver/Src/stm32f7xx_hal_rcc_ex.c ****         {
1407:Drivers/STM32F7xx_HAL_Driver/Src/stm32f7xx_hal_rcc_ex.c ****           /* In Case the PLL Source is HSI (Internal Clock) */
1408:Drivers/STM32F7xx_HAL_Driver/Src/stm32f7xx_hal_rcc_ex.c ****           vcoinput = (HSI_VALUE / (uint32_t)(RCC->PLLCFGR & RCC_PLLCFGR_PLLM));
1409:Drivers/STM32F7xx_HAL_Driver/Src/stm32f7xx_hal_rcc_ex.c ****         }
1410:Drivers/STM32F7xx_HAL_Driver/Src/stm32f7xx_hal_rcc_ex.c ****         else
1411:Drivers/STM32F7xx_HAL_Driver/Src/stm32f7xx_hal_rcc_ex.c ****         {
1412:Drivers/STM32F7xx_HAL_Driver/Src/stm32f7xx_hal_rcc_ex.c ****           /* In Case the PLL Source is HSE (External Clock) */
1413:Drivers/STM32F7xx_HAL_Driver/Src/stm32f7xx_hal_rcc_ex.c ****           vcoinput = ((HSE_VALUE / (uint32_t)(RCC->PLLCFGR & RCC_PLLCFGR_PLLM)));
1414:Drivers/STM32F7xx_HAL_Driver/Src/stm32f7xx_hal_rcc_ex.c ****         }
1415:Drivers/STM32F7xx_HAL_Driver/Src/stm32f7xx_hal_rcc_ex.c ****         /* PLLSAI_VCO Output = PLLSAI_VCO Input * PLLSAIN */
1416:Drivers/STM32F7xx_HAL_Driver/Src/stm32f7xx_hal_rcc_ex.c ****         /* SAI_CLK(first level) = PLLSAI_VCO Output/PLLSAIQ */
1417:Drivers/STM32F7xx_HAL_Driver/Src/stm32f7xx_hal_rcc_ex.c ****         tmpreg = (RCC->PLLSAICFGR & RCC_PLLSAICFGR_PLLSAIQ) >> 24;
1418:Drivers/STM32F7xx_HAL_Driver/Src/stm32f7xx_hal_rcc_ex.c ****         frequency = (vcoinput * ((RCC->PLLSAICFGR & RCC_PLLSAICFGR_PLLSAIN) >> 6))/(tmpreg);
1419:Drivers/STM32F7xx_HAL_Driver/Src/stm32f7xx_hal_rcc_ex.c **** 
1420:Drivers/STM32F7xx_HAL_Driver/Src/stm32f7xx_hal_rcc_ex.c ****         /* SAI_CLK_x = SAI_CLK(first level)/PLLSAIDIVQ */
1421:Drivers/STM32F7xx_HAL_Driver/Src/stm32f7xx_hal_rcc_ex.c ****         tmpreg = (((RCC->DCKCFGR1 & RCC_DCKCFGR1_PLLSAIDIVQ) >> 8) + 1);
1422:Drivers/STM32F7xx_HAL_Driver/Src/stm32f7xx_hal_rcc_ex.c ****         frequency = frequency/(tmpreg);
1423:Drivers/STM32F7xx_HAL_Driver/Src/stm32f7xx_hal_rcc_ex.c ****         break;
1424:Drivers/STM32F7xx_HAL_Driver/Src/stm32f7xx_hal_rcc_ex.c ****       }
1425:Drivers/STM32F7xx_HAL_Driver/Src/stm32f7xx_hal_rcc_ex.c ****     case RCC_DCKCFGR1_SAI1SEL_0: /* PLLI2S is the clock source for SAI1 */
1426:Drivers/STM32F7xx_HAL_Driver/Src/stm32f7xx_hal_rcc_ex.c ****       {
1427:Drivers/STM32F7xx_HAL_Driver/Src/stm32f7xx_hal_rcc_ex.c ****         /* Configure the PLLI2S division factor */
1428:Drivers/STM32F7xx_HAL_Driver/Src/stm32f7xx_hal_rcc_ex.c ****         /* PLLI2S_VCO Input  = PLL_SOURCE/PLLM */
1429:Drivers/STM32F7xx_HAL_Driver/Src/stm32f7xx_hal_rcc_ex.c ****         if((RCC->PLLCFGR & RCC_PLLCFGR_PLLSRC) == RCC_PLLSOURCE_HSI)
1430:Drivers/STM32F7xx_HAL_Driver/Src/stm32f7xx_hal_rcc_ex.c ****         {
1431:Drivers/STM32F7xx_HAL_Driver/Src/stm32f7xx_hal_rcc_ex.c ****           /* In Case the PLL Source is HSI (Internal Clock) */
1432:Drivers/STM32F7xx_HAL_Driver/Src/stm32f7xx_hal_rcc_ex.c ****           vcoinput = (HSI_VALUE / (uint32_t)(RCC->PLLCFGR & RCC_PLLCFGR_PLLM));
1433:Drivers/STM32F7xx_HAL_Driver/Src/stm32f7xx_hal_rcc_ex.c ****         }
1434:Drivers/STM32F7xx_HAL_Driver/Src/stm32f7xx_hal_rcc_ex.c ****         else
1435:Drivers/STM32F7xx_HAL_Driver/Src/stm32f7xx_hal_rcc_ex.c ****         {
1436:Drivers/STM32F7xx_HAL_Driver/Src/stm32f7xx_hal_rcc_ex.c ****           /* In Case the PLL Source is HSE (External Clock) */
1437:Drivers/STM32F7xx_HAL_Driver/Src/stm32f7xx_hal_rcc_ex.c ****           vcoinput = ((HSE_VALUE / (uint32_t)(RCC->PLLCFGR & RCC_PLLCFGR_PLLM)));
1438:Drivers/STM32F7xx_HAL_Driver/Src/stm32f7xx_hal_rcc_ex.c ****         }
1439:Drivers/STM32F7xx_HAL_Driver/Src/stm32f7xx_hal_rcc_ex.c **** 
1440:Drivers/STM32F7xx_HAL_Driver/Src/stm32f7xx_hal_rcc_ex.c ****         /* PLLI2S_VCO Output = PLLI2S_VCO Input * PLLI2SN */
1441:Drivers/STM32F7xx_HAL_Driver/Src/stm32f7xx_hal_rcc_ex.c ****         /* SAI_CLK(first level) = PLLI2S_VCO Output/PLLI2SQ */
1442:Drivers/STM32F7xx_HAL_Driver/Src/stm32f7xx_hal_rcc_ex.c ****         tmpreg = (RCC->PLLI2SCFGR & RCC_PLLI2SCFGR_PLLI2SQ) >> 24;
1443:Drivers/STM32F7xx_HAL_Driver/Src/stm32f7xx_hal_rcc_ex.c ****         frequency = (vcoinput * ((RCC->PLLI2SCFGR & RCC_PLLI2SCFGR_PLLI2SN) >> 6))/(tmpreg);
1444:Drivers/STM32F7xx_HAL_Driver/Src/stm32f7xx_hal_rcc_ex.c **** 
1445:Drivers/STM32F7xx_HAL_Driver/Src/stm32f7xx_hal_rcc_ex.c ****         /* SAI_CLK_x = SAI_CLK(first level)/PLLI2SDIVQ */
1446:Drivers/STM32F7xx_HAL_Driver/Src/stm32f7xx_hal_rcc_ex.c ****         tmpreg = ((RCC->DCKCFGR1 & RCC_DCKCFGR1_PLLI2SDIVQ) + 1);
1447:Drivers/STM32F7xx_HAL_Driver/Src/stm32f7xx_hal_rcc_ex.c ****         frequency = frequency/(tmpreg);
1448:Drivers/STM32F7xx_HAL_Driver/Src/stm32f7xx_hal_rcc_ex.c ****         break;
1449:Drivers/STM32F7xx_HAL_Driver/Src/stm32f7xx_hal_rcc_ex.c ****       }
1450:Drivers/STM32F7xx_HAL_Driver/Src/stm32f7xx_hal_rcc_ex.c ****     case RCC_DCKCFGR1_SAI1SEL_1: /* External clock is the clock source for SAI1 */
1451:Drivers/STM32F7xx_HAL_Driver/Src/stm32f7xx_hal_rcc_ex.c ****       {
1452:Drivers/STM32F7xx_HAL_Driver/Src/stm32f7xx_hal_rcc_ex.c ****         frequency = EXTERNAL_CLOCK_VALUE;
1453:Drivers/STM32F7xx_HAL_Driver/Src/stm32f7xx_hal_rcc_ex.c ****         break;
1454:Drivers/STM32F7xx_HAL_Driver/Src/stm32f7xx_hal_rcc_ex.c ****       }
1455:Drivers/STM32F7xx_HAL_Driver/Src/stm32f7xx_hal_rcc_ex.c **** #if defined (STM32F765xx) || defined (STM32F767xx) || defined (STM32F769xx) || defined (STM32F777xx
1456:Drivers/STM32F7xx_HAL_Driver/Src/stm32f7xx_hal_rcc_ex.c ****     case RCC_DCKCFGR1_SAI1SEL: /* HSI or HSE is the clock source for SAI*/
1457:Drivers/STM32F7xx_HAL_Driver/Src/stm32f7xx_hal_rcc_ex.c ****       {
1458:Drivers/STM32F7xx_HAL_Driver/Src/stm32f7xx_hal_rcc_ex.c ****         if((RCC->PLLCFGR & RCC_PLLCFGR_PLLSRC) == RCC_PLLSOURCE_HSI)
1459:Drivers/STM32F7xx_HAL_Driver/Src/stm32f7xx_hal_rcc_ex.c ****         {
ARM GAS  /tmp/ccLEMPDN.s 			page 54


1460:Drivers/STM32F7xx_HAL_Driver/Src/stm32f7xx_hal_rcc_ex.c ****           /* In Case the main PLL Source is HSI */
1461:Drivers/STM32F7xx_HAL_Driver/Src/stm32f7xx_hal_rcc_ex.c ****           frequency = HSI_VALUE;
1462:Drivers/STM32F7xx_HAL_Driver/Src/stm32f7xx_hal_rcc_ex.c ****         }
1463:Drivers/STM32F7xx_HAL_Driver/Src/stm32f7xx_hal_rcc_ex.c ****         else
1464:Drivers/STM32F7xx_HAL_Driver/Src/stm32f7xx_hal_rcc_ex.c ****         {
1465:Drivers/STM32F7xx_HAL_Driver/Src/stm32f7xx_hal_rcc_ex.c ****           /* In Case the main PLL Source is HSE */
1466:Drivers/STM32F7xx_HAL_Driver/Src/stm32f7xx_hal_rcc_ex.c ****           frequency = HSE_VALUE;
1467:Drivers/STM32F7xx_HAL_Driver/Src/stm32f7xx_hal_rcc_ex.c ****         }
1468:Drivers/STM32F7xx_HAL_Driver/Src/stm32f7xx_hal_rcc_ex.c ****         break;
1469:Drivers/STM32F7xx_HAL_Driver/Src/stm32f7xx_hal_rcc_ex.c ****       }
1470:Drivers/STM32F7xx_HAL_Driver/Src/stm32f7xx_hal_rcc_ex.c **** #endif /* STM32F767xx || STM32F769xx || STM32F777xx || STM32F779xx */
1471:Drivers/STM32F7xx_HAL_Driver/Src/stm32f7xx_hal_rcc_ex.c ****     default :
1472:Drivers/STM32F7xx_HAL_Driver/Src/stm32f7xx_hal_rcc_ex.c ****       {
1473:Drivers/STM32F7xx_HAL_Driver/Src/stm32f7xx_hal_rcc_ex.c ****         break;
1474:Drivers/STM32F7xx_HAL_Driver/Src/stm32f7xx_hal_rcc_ex.c ****       }
1475:Drivers/STM32F7xx_HAL_Driver/Src/stm32f7xx_hal_rcc_ex.c ****     }
1476:Drivers/STM32F7xx_HAL_Driver/Src/stm32f7xx_hal_rcc_ex.c ****   }
1477:Drivers/STM32F7xx_HAL_Driver/Src/stm32f7xx_hal_rcc_ex.c **** 
1478:Drivers/STM32F7xx_HAL_Driver/Src/stm32f7xx_hal_rcc_ex.c ****   if (PeriphClk == RCC_PERIPHCLK_SAI2)
 1429              		.loc 1 1478 3 is_stmt 1 view .LVU516
 1430              		.loc 1 1478 6 is_stmt 0 view .LVU517
 1431 000c B3F5801F 		cmp	r3, #1048576
 1432 0010 73D0     		beq	.L122
 1433              	.LVL82:
 1434              	.L96:
1479:Drivers/STM32F7xx_HAL_Driver/Src/stm32f7xx_hal_rcc_ex.c ****   {
1480:Drivers/STM32F7xx_HAL_Driver/Src/stm32f7xx_hal_rcc_ex.c ****     saiclocksource = RCC->DCKCFGR1;
1481:Drivers/STM32F7xx_HAL_Driver/Src/stm32f7xx_hal_rcc_ex.c ****     saiclocksource &= RCC_DCKCFGR1_SAI2SEL;
1482:Drivers/STM32F7xx_HAL_Driver/Src/stm32f7xx_hal_rcc_ex.c ****     switch (saiclocksource)
1483:Drivers/STM32F7xx_HAL_Driver/Src/stm32f7xx_hal_rcc_ex.c ****     {
1484:Drivers/STM32F7xx_HAL_Driver/Src/stm32f7xx_hal_rcc_ex.c ****     case 0: /* PLLSAI is the clock source for SAI*/
1485:Drivers/STM32F7xx_HAL_Driver/Src/stm32f7xx_hal_rcc_ex.c ****       {
1486:Drivers/STM32F7xx_HAL_Driver/Src/stm32f7xx_hal_rcc_ex.c ****         /* Configure the PLLSAI division factor */
1487:Drivers/STM32F7xx_HAL_Driver/Src/stm32f7xx_hal_rcc_ex.c ****         /* PLLSAI_VCO Input  = PLL_SOURCE/PLLM */
1488:Drivers/STM32F7xx_HAL_Driver/Src/stm32f7xx_hal_rcc_ex.c ****         if((RCC->PLLCFGR & RCC_PLLCFGR_PLLSRC) == RCC_PLLSOURCE_HSI)
1489:Drivers/STM32F7xx_HAL_Driver/Src/stm32f7xx_hal_rcc_ex.c ****         {
1490:Drivers/STM32F7xx_HAL_Driver/Src/stm32f7xx_hal_rcc_ex.c ****           /* In Case the PLL Source is HSI (Internal Clock) */
1491:Drivers/STM32F7xx_HAL_Driver/Src/stm32f7xx_hal_rcc_ex.c ****           vcoinput = (HSI_VALUE / (uint32_t)(RCC->PLLCFGR & RCC_PLLCFGR_PLLM));
1492:Drivers/STM32F7xx_HAL_Driver/Src/stm32f7xx_hal_rcc_ex.c ****         }
1493:Drivers/STM32F7xx_HAL_Driver/Src/stm32f7xx_hal_rcc_ex.c ****         else
1494:Drivers/STM32F7xx_HAL_Driver/Src/stm32f7xx_hal_rcc_ex.c ****         {
1495:Drivers/STM32F7xx_HAL_Driver/Src/stm32f7xx_hal_rcc_ex.c ****           /* In Case the PLL Source is HSE (External Clock) */
1496:Drivers/STM32F7xx_HAL_Driver/Src/stm32f7xx_hal_rcc_ex.c ****           vcoinput = ((HSE_VALUE / (uint32_t)(RCC->PLLCFGR & RCC_PLLCFGR_PLLM)));
1497:Drivers/STM32F7xx_HAL_Driver/Src/stm32f7xx_hal_rcc_ex.c ****         }
1498:Drivers/STM32F7xx_HAL_Driver/Src/stm32f7xx_hal_rcc_ex.c ****         /* PLLSAI_VCO Output = PLLSAI_VCO Input * PLLSAIN */
1499:Drivers/STM32F7xx_HAL_Driver/Src/stm32f7xx_hal_rcc_ex.c ****         /* SAI_CLK(first level) = PLLSAI_VCO Output/PLLSAIQ */
1500:Drivers/STM32F7xx_HAL_Driver/Src/stm32f7xx_hal_rcc_ex.c ****         tmpreg = (RCC->PLLSAICFGR & RCC_PLLSAICFGR_PLLSAIQ) >> 24;
1501:Drivers/STM32F7xx_HAL_Driver/Src/stm32f7xx_hal_rcc_ex.c ****         frequency = (vcoinput * ((RCC->PLLSAICFGR & RCC_PLLSAICFGR_PLLSAIN) >> 6))/(tmpreg);
1502:Drivers/STM32F7xx_HAL_Driver/Src/stm32f7xx_hal_rcc_ex.c **** 
1503:Drivers/STM32F7xx_HAL_Driver/Src/stm32f7xx_hal_rcc_ex.c ****         /* SAI_CLK_x = SAI_CLK(first level)/PLLSAIDIVQ */
1504:Drivers/STM32F7xx_HAL_Driver/Src/stm32f7xx_hal_rcc_ex.c ****         tmpreg = (((RCC->DCKCFGR1 & RCC_DCKCFGR1_PLLSAIDIVQ) >> 8) + 1);
1505:Drivers/STM32F7xx_HAL_Driver/Src/stm32f7xx_hal_rcc_ex.c ****         frequency = frequency/(tmpreg);
1506:Drivers/STM32F7xx_HAL_Driver/Src/stm32f7xx_hal_rcc_ex.c ****         break;
1507:Drivers/STM32F7xx_HAL_Driver/Src/stm32f7xx_hal_rcc_ex.c ****       }
1508:Drivers/STM32F7xx_HAL_Driver/Src/stm32f7xx_hal_rcc_ex.c ****     case RCC_DCKCFGR1_SAI2SEL_0: /* PLLI2S is the clock source for SAI2 */
1509:Drivers/STM32F7xx_HAL_Driver/Src/stm32f7xx_hal_rcc_ex.c ****       {
1510:Drivers/STM32F7xx_HAL_Driver/Src/stm32f7xx_hal_rcc_ex.c ****         /* Configure the PLLI2S division factor */
ARM GAS  /tmp/ccLEMPDN.s 			page 55


1511:Drivers/STM32F7xx_HAL_Driver/Src/stm32f7xx_hal_rcc_ex.c ****         /* PLLI2S_VCO Input  = PLL_SOURCE/PLLM */
1512:Drivers/STM32F7xx_HAL_Driver/Src/stm32f7xx_hal_rcc_ex.c ****         if((RCC->PLLCFGR & RCC_PLLCFGR_PLLSRC) == RCC_PLLSOURCE_HSI)
1513:Drivers/STM32F7xx_HAL_Driver/Src/stm32f7xx_hal_rcc_ex.c ****         {
1514:Drivers/STM32F7xx_HAL_Driver/Src/stm32f7xx_hal_rcc_ex.c ****           /* In Case the PLL Source is HSI (Internal Clock) */
1515:Drivers/STM32F7xx_HAL_Driver/Src/stm32f7xx_hal_rcc_ex.c ****           vcoinput = (HSI_VALUE / (uint32_t)(RCC->PLLCFGR & RCC_PLLCFGR_PLLM));
1516:Drivers/STM32F7xx_HAL_Driver/Src/stm32f7xx_hal_rcc_ex.c ****         }
1517:Drivers/STM32F7xx_HAL_Driver/Src/stm32f7xx_hal_rcc_ex.c ****         else
1518:Drivers/STM32F7xx_HAL_Driver/Src/stm32f7xx_hal_rcc_ex.c ****         {
1519:Drivers/STM32F7xx_HAL_Driver/Src/stm32f7xx_hal_rcc_ex.c ****           /* In Case the PLL Source is HSE (External Clock) */
1520:Drivers/STM32F7xx_HAL_Driver/Src/stm32f7xx_hal_rcc_ex.c ****           vcoinput = ((HSE_VALUE / (uint32_t)(RCC->PLLCFGR & RCC_PLLCFGR_PLLM)));
1521:Drivers/STM32F7xx_HAL_Driver/Src/stm32f7xx_hal_rcc_ex.c ****         }
1522:Drivers/STM32F7xx_HAL_Driver/Src/stm32f7xx_hal_rcc_ex.c **** 
1523:Drivers/STM32F7xx_HAL_Driver/Src/stm32f7xx_hal_rcc_ex.c ****         /* PLLI2S_VCO Output = PLLI2S_VCO Input * PLLI2SN */
1524:Drivers/STM32F7xx_HAL_Driver/Src/stm32f7xx_hal_rcc_ex.c ****         /* SAI_CLK(first level) = PLLI2S_VCO Output/PLLI2SQ */
1525:Drivers/STM32F7xx_HAL_Driver/Src/stm32f7xx_hal_rcc_ex.c ****         tmpreg = (RCC->PLLI2SCFGR & RCC_PLLI2SCFGR_PLLI2SQ) >> 24;
1526:Drivers/STM32F7xx_HAL_Driver/Src/stm32f7xx_hal_rcc_ex.c ****         frequency = (vcoinput * ((RCC->PLLI2SCFGR & RCC_PLLI2SCFGR_PLLI2SN) >> 6))/(tmpreg);
1527:Drivers/STM32F7xx_HAL_Driver/Src/stm32f7xx_hal_rcc_ex.c **** 
1528:Drivers/STM32F7xx_HAL_Driver/Src/stm32f7xx_hal_rcc_ex.c ****         /* SAI_CLK_x = SAI_CLK(first level)/PLLI2SDIVQ */
1529:Drivers/STM32F7xx_HAL_Driver/Src/stm32f7xx_hal_rcc_ex.c ****         tmpreg = ((RCC->DCKCFGR1 & RCC_DCKCFGR1_PLLI2SDIVQ) + 1);
1530:Drivers/STM32F7xx_HAL_Driver/Src/stm32f7xx_hal_rcc_ex.c ****         frequency = frequency/(tmpreg);
1531:Drivers/STM32F7xx_HAL_Driver/Src/stm32f7xx_hal_rcc_ex.c ****         break;
1532:Drivers/STM32F7xx_HAL_Driver/Src/stm32f7xx_hal_rcc_ex.c ****       }
1533:Drivers/STM32F7xx_HAL_Driver/Src/stm32f7xx_hal_rcc_ex.c ****     case RCC_DCKCFGR1_SAI2SEL_1: /* External clock is the clock source for SAI2 */
1534:Drivers/STM32F7xx_HAL_Driver/Src/stm32f7xx_hal_rcc_ex.c ****       {
1535:Drivers/STM32F7xx_HAL_Driver/Src/stm32f7xx_hal_rcc_ex.c ****         frequency = EXTERNAL_CLOCK_VALUE;
1536:Drivers/STM32F7xx_HAL_Driver/Src/stm32f7xx_hal_rcc_ex.c ****         break;
1537:Drivers/STM32F7xx_HAL_Driver/Src/stm32f7xx_hal_rcc_ex.c ****       }
1538:Drivers/STM32F7xx_HAL_Driver/Src/stm32f7xx_hal_rcc_ex.c **** #if defined (STM32F765xx) || defined (STM32F767xx) || defined (STM32F769xx) || defined (STM32F777xx
1539:Drivers/STM32F7xx_HAL_Driver/Src/stm32f7xx_hal_rcc_ex.c ****     case RCC_DCKCFGR1_SAI2SEL: /* HSI or HSE is the clock source for SAI2 */
1540:Drivers/STM32F7xx_HAL_Driver/Src/stm32f7xx_hal_rcc_ex.c ****       {
1541:Drivers/STM32F7xx_HAL_Driver/Src/stm32f7xx_hal_rcc_ex.c ****         if((RCC->PLLCFGR & RCC_PLLCFGR_PLLSRC) == RCC_PLLSOURCE_HSI)
1542:Drivers/STM32F7xx_HAL_Driver/Src/stm32f7xx_hal_rcc_ex.c ****         {
1543:Drivers/STM32F7xx_HAL_Driver/Src/stm32f7xx_hal_rcc_ex.c ****           /* In Case the main PLL Source is HSI */
1544:Drivers/STM32F7xx_HAL_Driver/Src/stm32f7xx_hal_rcc_ex.c ****           frequency = HSI_VALUE;
1545:Drivers/STM32F7xx_HAL_Driver/Src/stm32f7xx_hal_rcc_ex.c ****         }
1546:Drivers/STM32F7xx_HAL_Driver/Src/stm32f7xx_hal_rcc_ex.c ****         else
1547:Drivers/STM32F7xx_HAL_Driver/Src/stm32f7xx_hal_rcc_ex.c ****         {
1548:Drivers/STM32F7xx_HAL_Driver/Src/stm32f7xx_hal_rcc_ex.c ****           /* In Case the main PLL Source is HSE */
1549:Drivers/STM32F7xx_HAL_Driver/Src/stm32f7xx_hal_rcc_ex.c ****           frequency = HSE_VALUE;
1550:Drivers/STM32F7xx_HAL_Driver/Src/stm32f7xx_hal_rcc_ex.c ****         }
1551:Drivers/STM32F7xx_HAL_Driver/Src/stm32f7xx_hal_rcc_ex.c ****         break;
1552:Drivers/STM32F7xx_HAL_Driver/Src/stm32f7xx_hal_rcc_ex.c ****       }
1553:Drivers/STM32F7xx_HAL_Driver/Src/stm32f7xx_hal_rcc_ex.c **** #endif /* STM32F767xx || STM32F769xx || STM32F777xx || STM32F779xx */
1554:Drivers/STM32F7xx_HAL_Driver/Src/stm32f7xx_hal_rcc_ex.c ****     default :
1555:Drivers/STM32F7xx_HAL_Driver/Src/stm32f7xx_hal_rcc_ex.c ****       {
1556:Drivers/STM32F7xx_HAL_Driver/Src/stm32f7xx_hal_rcc_ex.c ****         break;
1557:Drivers/STM32F7xx_HAL_Driver/Src/stm32f7xx_hal_rcc_ex.c ****       }
1558:Drivers/STM32F7xx_HAL_Driver/Src/stm32f7xx_hal_rcc_ex.c ****     }
1559:Drivers/STM32F7xx_HAL_Driver/Src/stm32f7xx_hal_rcc_ex.c ****   }
1560:Drivers/STM32F7xx_HAL_Driver/Src/stm32f7xx_hal_rcc_ex.c **** 
1561:Drivers/STM32F7xx_HAL_Driver/Src/stm32f7xx_hal_rcc_ex.c ****   return frequency;
1562:Drivers/STM32F7xx_HAL_Driver/Src/stm32f7xx_hal_rcc_ex.c **** }
 1435              		.loc 1 1562 1 view .LVU518
 1436 0012 5DF8044B 		ldr	r4, [sp], #4
 1437              	.LCFI5:
 1438              		.cfi_remember_state
 1439              		.cfi_restore 4
ARM GAS  /tmp/ccLEMPDN.s 			page 56


 1440              		.cfi_def_cfa_offset 0
 1441 0016 7047     		bx	lr
 1442              	.LVL83:
 1443              	.L121:
 1444              	.LCFI6:
 1445              		.cfi_restore_state
1397:Drivers/STM32F7xx_HAL_Driver/Src/stm32f7xx_hal_rcc_ex.c ****     saiclocksource &= RCC_DCKCFGR1_SAI1SEL;
 1446              		.loc 1 1397 5 is_stmt 1 view .LVU519
1397:Drivers/STM32F7xx_HAL_Driver/Src/stm32f7xx_hal_rcc_ex.c ****     saiclocksource &= RCC_DCKCFGR1_SAI1SEL;
 1447              		.loc 1 1397 20 is_stmt 0 view .LVU520
 1448 0018 6F4A     		ldr	r2, .L125
 1449 001a D2F88C20 		ldr	r2, [r2, #140]
 1450              	.LVL84:
1398:Drivers/STM32F7xx_HAL_Driver/Src/stm32f7xx_hal_rcc_ex.c ****     switch (saiclocksource)
 1451              		.loc 1 1398 5 is_stmt 1 view .LVU521
1398:Drivers/STM32F7xx_HAL_Driver/Src/stm32f7xx_hal_rcc_ex.c ****     switch (saiclocksource)
 1452              		.loc 1 1398 20 is_stmt 0 view .LVU522
 1453 001e 02F44012 		and	r2, r2, #3145728
 1454              	.LVL85:
1399:Drivers/STM32F7xx_HAL_Driver/Src/stm32f7xx_hal_rcc_ex.c ****     {
 1455              		.loc 1 1399 5 is_stmt 1 view .LVU523
 1456 0022 B2F5001F 		cmp	r2, #2097152
 1457 0026 64D0     		beq	.L116
 1458 0028 26D8     		bhi	.L98
 1459 002a 8AB3     		cbz	r2, .L99
 1460 002c B2F5801F 		cmp	r2, #1048576
 1461 0030 20D1     		bne	.L123
1429:Drivers/STM32F7xx_HAL_Driver/Src/stm32f7xx_hal_rcc_ex.c ****         {
 1462              		.loc 1 1429 9 view .LVU524
1429:Drivers/STM32F7xx_HAL_Driver/Src/stm32f7xx_hal_rcc_ex.c ****         {
 1463              		.loc 1 1429 16 is_stmt 0 view .LVU525
 1464 0032 694A     		ldr	r2, .L125
 1465              	.LVL86:
1429:Drivers/STM32F7xx_HAL_Driver/Src/stm32f7xx_hal_rcc_ex.c ****         {
 1466              		.loc 1 1429 16 view .LVU526
 1467 0034 5268     		ldr	r2, [r2, #4]
1429:Drivers/STM32F7xx_HAL_Driver/Src/stm32f7xx_hal_rcc_ex.c ****         {
 1468              		.loc 1 1429 11 view .LVU527
 1469 0036 12F4800F 		tst	r2, #4194304
 1470 003a 52D1     		bne	.L104
1432:Drivers/STM32F7xx_HAL_Driver/Src/stm32f7xx_hal_rcc_ex.c ****         }
 1471              		.loc 1 1432 11 is_stmt 1 view .LVU528
1432:Drivers/STM32F7xx_HAL_Driver/Src/stm32f7xx_hal_rcc_ex.c ****         }
 1472              		.loc 1 1432 49 is_stmt 0 view .LVU529
 1473 003c 664A     		ldr	r2, .L125
 1474 003e 5268     		ldr	r2, [r2, #4]
1432:Drivers/STM32F7xx_HAL_Driver/Src/stm32f7xx_hal_rcc_ex.c ****         }
 1475              		.loc 1 1432 35 view .LVU530
 1476 0040 02F03F02 		and	r2, r2, #63
1432:Drivers/STM32F7xx_HAL_Driver/Src/stm32f7xx_hal_rcc_ex.c ****         }
 1477              		.loc 1 1432 20 view .LVU531
 1478 0044 6548     		ldr	r0, .L125+4
 1479              	.LVL87:
1432:Drivers/STM32F7xx_HAL_Driver/Src/stm32f7xx_hal_rcc_ex.c ****         }
 1480              		.loc 1 1432 20 view .LVU532
 1481 0046 B0FBF2F0 		udiv	r0, r0, r2
 1482              	.LVL88:
ARM GAS  /tmp/ccLEMPDN.s 			page 57


 1483              	.L105:
1442:Drivers/STM32F7xx_HAL_Driver/Src/stm32f7xx_hal_rcc_ex.c ****         frequency = (vcoinput * ((RCC->PLLI2SCFGR & RCC_PLLI2SCFGR_PLLI2SN) >> 6))/(tmpreg);
 1484              		.loc 1 1442 9 is_stmt 1 view .LVU533
1442:Drivers/STM32F7xx_HAL_Driver/Src/stm32f7xx_hal_rcc_ex.c ****         frequency = (vcoinput * ((RCC->PLLI2SCFGR & RCC_PLLI2SCFGR_PLLI2SN) >> 6))/(tmpreg);
 1485              		.loc 1 1442 22 is_stmt 0 view .LVU534
 1486 004a 634A     		ldr	r2, .L125
 1487 004c D2F88410 		ldr	r1, [r2, #132]
1442:Drivers/STM32F7xx_HAL_Driver/Src/stm32f7xx_hal_rcc_ex.c ****         frequency = (vcoinput * ((RCC->PLLI2SCFGR & RCC_PLLI2SCFGR_PLLI2SN) >> 6))/(tmpreg);
 1488              		.loc 1 1442 16 view .LVU535
 1489 0050 C1F30361 		ubfx	r1, r1, #24, #4
 1490              	.LVL89:
1443:Drivers/STM32F7xx_HAL_Driver/Src/stm32f7xx_hal_rcc_ex.c **** 
 1491              		.loc 1 1443 9 is_stmt 1 view .LVU536
1443:Drivers/STM32F7xx_HAL_Driver/Src/stm32f7xx_hal_rcc_ex.c **** 
 1492              		.loc 1 1443 38 is_stmt 0 view .LVU537
 1493 0054 D2F88440 		ldr	r4, [r2, #132]
1443:Drivers/STM32F7xx_HAL_Driver/Src/stm32f7xx_hal_rcc_ex.c **** 
 1494              		.loc 1 1443 77 view .LVU538
 1495 0058 C4F38814 		ubfx	r4, r4, #6, #9
1443:Drivers/STM32F7xx_HAL_Driver/Src/stm32f7xx_hal_rcc_ex.c **** 
 1496              		.loc 1 1443 31 view .LVU539
 1497 005c 00FB04F0 		mul	r0, r0, r4
 1498              	.LVL90:
1443:Drivers/STM32F7xx_HAL_Driver/Src/stm32f7xx_hal_rcc_ex.c **** 
 1499              		.loc 1 1443 19 view .LVU540
 1500 0060 B0FBF1F0 		udiv	r0, r0, r1
 1501              	.LVL91:
1446:Drivers/STM32F7xx_HAL_Driver/Src/stm32f7xx_hal_rcc_ex.c ****         frequency = frequency/(tmpreg);
 1502              		.loc 1 1446 9 is_stmt 1 view .LVU541
1446:Drivers/STM32F7xx_HAL_Driver/Src/stm32f7xx_hal_rcc_ex.c ****         frequency = frequency/(tmpreg);
 1503              		.loc 1 1446 23 is_stmt 0 view .LVU542
 1504 0064 D2F88C20 		ldr	r2, [r2, #140]
1446:Drivers/STM32F7xx_HAL_Driver/Src/stm32f7xx_hal_rcc_ex.c ****         frequency = frequency/(tmpreg);
 1505              		.loc 1 1446 34 view .LVU543
 1506 0068 02F01F02 		and	r2, r2, #31
1446:Drivers/STM32F7xx_HAL_Driver/Src/stm32f7xx_hal_rcc_ex.c ****         frequency = frequency/(tmpreg);
 1507              		.loc 1 1446 16 view .LVU544
 1508 006c 0132     		adds	r2, r2, #1
 1509              	.LVL92:
1447:Drivers/STM32F7xx_HAL_Driver/Src/stm32f7xx_hal_rcc_ex.c ****         break;
 1510              		.loc 1 1447 9 is_stmt 1 view .LVU545
1447:Drivers/STM32F7xx_HAL_Driver/Src/stm32f7xx_hal_rcc_ex.c ****         break;
 1511              		.loc 1 1447 19 is_stmt 0 view .LVU546
 1512 006e B0FBF2F0 		udiv	r0, r0, r2
 1513              	.LVL93:
1448:Drivers/STM32F7xx_HAL_Driver/Src/stm32f7xx_hal_rcc_ex.c ****       }
 1514              		.loc 1 1448 9 is_stmt 1 view .LVU547
 1515 0072 CBE7     		b	.L97
 1516              	.LVL94:
 1517              	.L123:
1399:Drivers/STM32F7xx_HAL_Driver/Src/stm32f7xx_hal_rcc_ex.c ****     {
 1518              		.loc 1 1399 5 is_stmt 0 view .LVU548
 1519 0074 0020     		movs	r0, #0
 1520              	.LVL95:
1399:Drivers/STM32F7xx_HAL_Driver/Src/stm32f7xx_hal_rcc_ex.c ****     {
 1521              		.loc 1 1399 5 view .LVU549
 1522 0076 C9E7     		b	.L97
ARM GAS  /tmp/ccLEMPDN.s 			page 58


 1523              	.LVL96:
 1524              	.L98:
1399:Drivers/STM32F7xx_HAL_Driver/Src/stm32f7xx_hal_rcc_ex.c ****     {
 1525              		.loc 1 1399 5 view .LVU550
 1526 0078 B2F5401F 		cmp	r2, #3145728
 1527 007c 06D1     		bne	.L124
1458:Drivers/STM32F7xx_HAL_Driver/Src/stm32f7xx_hal_rcc_ex.c ****         {
 1528              		.loc 1 1458 9 is_stmt 1 view .LVU551
1458:Drivers/STM32F7xx_HAL_Driver/Src/stm32f7xx_hal_rcc_ex.c ****         {
 1529              		.loc 1 1458 16 is_stmt 0 view .LVU552
 1530 007e 564A     		ldr	r2, .L125
 1531              	.LVL97:
