ARM GAS  /tmp/ccnHeIbX.s 			page 1


   1              		.cpu cortex-m7
   2              		.eabi_attribute 28, 1
   3              		.eabi_attribute 20, 1
   4              		.eabi_attribute 21, 1
   5              		.eabi_attribute 23, 3
   6              		.eabi_attribute 24, 1
   7              		.eabi_attribute 25, 1
   8              		.eabi_attribute 26, 1
   9              		.eabi_attribute 30, 1
  10              		.eabi_attribute 34, 1
  11              		.eabi_attribute 18, 4
  12              		.file	"usbd_hid.c"
  13              		.text
  14              	.Ltext0:
  15              		.cfi_sections	.debug_frame
  16              		.section	.text.USBD_HID_Init,"ax",%progbits
  17              		.align	1
  18              		.global	USBD_HID_Init
  19              		.arch armv7e-m
  20              		.syntax unified
  21              		.thumb
  22              		.thumb_func
  23              		.fpu fpv5-d16
  25              	USBD_HID_Init:
  26              	.LVL0:
  27              	.LFB145:
  28              		.file 1 "Src/usb/hid/usbd_hid.c"
   1:Src/usb/hid/usbd_hid.c **** /**
   2:Src/usb/hid/usbd_hid.c ****   ******************************************************************************
   3:Src/usb/hid/usbd_hid.c ****   * @file    usbd_customhid.c
   4:Src/usb/hid/usbd_hid.c ****   * @author  MCD Application Team
   5:Src/usb/hid/usbd_hid.c ****   * @version V2.4.2
   6:Src/usb/hid/usbd_hid.c ****   * @date    11-December-2015
   7:Src/usb/hid/usbd_hid.c ****   * @brief   This file provides the CUSTOM_HID core functions.
   8:Src/usb/hid/usbd_hid.c ****   *
   9:Src/usb/hid/usbd_hid.c ****   * @verbatim
  10:Src/usb/hid/usbd_hid.c ****   *
  11:Src/usb/hid/usbd_hid.c ****   *          ===================================================================
  12:Src/usb/hid/usbd_hid.c ****   *                                CUSTOM_HID Class  Description
  13:Src/usb/hid/usbd_hid.c ****   *          ===================================================================
  14:Src/usb/hid/usbd_hid.c ****   *           This module manages the CUSTOM_HID class V1.11 following the "Device Class Definition
  15:Src/usb/hid/usbd_hid.c ****   *           for Human Interface Devices (CUSTOM_HID) Version 1.11 Jun 27, 2001".
  16:Src/usb/hid/usbd_hid.c ****   *           This driver implements the following aspects of the specification:
  17:Src/usb/hid/usbd_hid.c ****   *             - The Boot Interface Subclass
  18:Src/usb/hid/usbd_hid.c ****   *             - Usage Page : Generic Desktop
  19:Src/usb/hid/usbd_hid.c ****   *             - Usage : Vendor
  20:Src/usb/hid/usbd_hid.c ****   *             - Collection : Application
  21:Src/usb/hid/usbd_hid.c ****   *
  22:Src/usb/hid/usbd_hid.c ****   * @note     In HS mode and when the DMA is used, all variables and data structures
  23:Src/usb/hid/usbd_hid.c ****   *           dealing with the DMA during the transaction process should be 32-bit aligned.
  24:Src/usb/hid/usbd_hid.c ****   *
  25:Src/usb/hid/usbd_hid.c ****   *
  26:Src/usb/hid/usbd_hid.c ****   *  @endverbatim
  27:Src/usb/hid/usbd_hid.c ****   *
  28:Src/usb/hid/usbd_hid.c ****   ******************************************************************************
  29:Src/usb/hid/usbd_hid.c ****   * @attention
  30:Src/usb/hid/usbd_hid.c ****   *
ARM GAS  /tmp/ccnHeIbX.s 			page 2


  31:Src/usb/hid/usbd_hid.c ****   * <h2><center>&copy; COPYRIGHT 2015 STMicroelectronics</center></h2>
  32:Src/usb/hid/usbd_hid.c ****   *
  33:Src/usb/hid/usbd_hid.c ****   * Licensed under MCD-ST Liberty SW License Agreement V2, (the "License");
  34:Src/usb/hid/usbd_hid.c ****   * You may not use this file except in compliance with the License.
  35:Src/usb/hid/usbd_hid.c ****   * You may obtain a copy of the License at:
  36:Src/usb/hid/usbd_hid.c ****   *
  37:Src/usb/hid/usbd_hid.c ****   *        http://www.st.com/software_license_agreement_liberty_v2
  38:Src/usb/hid/usbd_hid.c ****   *
  39:Src/usb/hid/usbd_hid.c ****   * Unless required by applicable law or agreed to in writing, software
  40:Src/usb/hid/usbd_hid.c ****   * distributed under the License is distributed on an "AS IS" BASIS,
  41:Src/usb/hid/usbd_hid.c ****   * WITHOUT WARRANTIES OR CONDITIONS OF ANY KIND, either express or implied.
  42:Src/usb/hid/usbd_hid.c ****   * See the License for the specific language governing permissions and
  43:Src/usb/hid/usbd_hid.c ****   * limitations under the License.
  44:Src/usb/hid/usbd_hid.c ****   *
  45:Src/usb/hid/usbd_hid.c ****   ******************************************************************************
  46:Src/usb/hid/usbd_hid.c ****   */
  47:Src/usb/hid/usbd_hid.c **** 
  48:Src/usb/hid/usbd_hid.c **** /* Includes ------------------------------------------------------------------*/
  49:Src/usb/hid/usbd_hid.c **** #include "usbd_hid.h"
  50:Src/usb/hid/usbd_hid.c **** #include "usbd_desc.h"
  51:Src/usb/hid/usbd_hid.c **** #include "usbd_ctlreq.h"
  52:Src/usb/hid/usbd_hid.c **** 
  53:Src/usb/hid/usbd_hid.c **** extern const uint16_t USBD_HID_DescriptorOffset;
  54:Src/usb/hid/usbd_hid.c **** extern const uint16_t USBD_HID_ReportDescriptorSize;
  55:Src/usb/hid/usbd_hid.c **** extern uint8_t USBD_ConfigDescriptor[];
  56:Src/usb/hid/usbd_hid.c **** 
  57:Src/usb/hid/usbd_hid.c **** extern USBD_CUSTOM_HID_ItfTypeDef USBD_CustomHID_fops;
  58:Src/usb/hid/usbd_hid.c **** 
  59:Src/usb/hid/usbd_hid.c **** USBD_CUSTOM_HID_HandleTypeDef hidClassData;
  60:Src/usb/hid/usbd_hid.c **** 
  61:Src/usb/hid/usbd_hid.c **** void USBD_HID_Init(USBD_HandleTypeDef *pdev, uint8_t cfgidx)
  62:Src/usb/hid/usbd_hid.c **** {
  29              		.loc 1 62 1 view -0
  30              		.cfi_startproc
  31              		@ args = 0, pretend = 0, frame = 0
  32              		@ frame_needed = 0, uses_anonymous_args = 0
  33              		.loc 1 62 1 is_stmt 0 view .LVU1
  34 0000 38B5     		push	{r3, r4, r5, lr}
  35              	.LCFI0:
  36              		.cfi_def_cfa_offset 16
  37              		.cfi_offset 3, -16
  38              		.cfi_offset 4, -12
  39              		.cfi_offset 5, -8
  40              		.cfi_offset 14, -4
  41 0002 0446     		mov	r4, r0
  63:Src/usb/hid/usbd_hid.c ****     (void)cfgidx;
  42              		.loc 1 63 5 is_stmt 1 view .LVU2
  64:Src/usb/hid/usbd_hid.c **** 
  65:Src/usb/hid/usbd_hid.c ****     /* Open EP IN */
  66:Src/usb/hid/usbd_hid.c ****     USBD_LL_OpenEP(pdev,
  43              		.loc 1 66 5 view .LVU3
  44 0004 4023     		movs	r3, #64
  45 0006 0322     		movs	r2, #3
  46 0008 8121     		movs	r1, #129
  47              	.LVL1:
  48              		.loc 1 66 5 is_stmt 0 view .LVU4
  49 000a FFF7FEFF 		bl	USBD_LL_OpenEP
ARM GAS  /tmp/ccnHeIbX.s 			page 3


  50              	.LVL2:
  67:Src/usb/hid/usbd_hid.c ****                  CUSTOM_HID_EPIN_ADDR,
  68:Src/usb/hid/usbd_hid.c ****                  USBD_EP_TYPE_INTR,
  69:Src/usb/hid/usbd_hid.c ****                  CUSTOM_HID_EPIN_SIZE);
  70:Src/usb/hid/usbd_hid.c **** 
  71:Src/usb/hid/usbd_hid.c ****     /* Open EP OUT */
  72:Src/usb/hid/usbd_hid.c ****     USBD_LL_OpenEP(pdev,
  51              		.loc 1 72 5 is_stmt 1 view .LVU5
  52 000e 4023     		movs	r3, #64
  53 0010 0322     		movs	r2, #3
  54 0012 0121     		movs	r1, #1
  55 0014 2046     		mov	r0, r4
  56 0016 FFF7FEFF 		bl	USBD_LL_OpenEP
  57              	.LVL3:
  73:Src/usb/hid/usbd_hid.c ****                  CUSTOM_HID_EPOUT_ADDR,
  74:Src/usb/hid/usbd_hid.c ****                  USBD_EP_TYPE_INTR,
  75:Src/usb/hid/usbd_hid.c ****                  CUSTOM_HID_EPOUT_SIZE);
  76:Src/usb/hid/usbd_hid.c **** 
  77:Src/usb/hid/usbd_hid.c ****     USBD_CUSTOM_HID_HandleTypeDef *hhid = &hidClassData;
  58              		.loc 1 77 5 view .LVU6
  78:Src/usb/hid/usbd_hid.c **** 
  79:Src/usb/hid/usbd_hid.c ****     hhid->state = CUSTOM_HID_IDLE;
  59              		.loc 1 79 5 view .LVU7
  60              		.loc 1 79 17 is_stmt 0 view .LVU8
  61 001a 074D     		ldr	r5, .L3
  62 001c 0023     		movs	r3, #0
  63 001e 85F85030 		strb	r3, [r5, #80]
  80:Src/usb/hid/usbd_hid.c ****     USBD_CustomHID_fops.Init();
  64              		.loc 1 80 5 is_stmt 1 view .LVU9
  65              		.loc 1 80 24 is_stmt 0 view .LVU10
  66 0022 064B     		ldr	r3, .L3+4
  67 0024 5B68     		ldr	r3, [r3, #4]
  68              		.loc 1 80 5 view .LVU11
  69 0026 9847     		blx	r3
  70              	.LVL4:
  81:Src/usb/hid/usbd_hid.c ****           /* Prepare Out endpoint to receive 1st packet */
  82:Src/usb/hid/usbd_hid.c ****     USBD_LL_PrepareReceive(pdev, CUSTOM_HID_EPOUT_ADDR, hhid->Report_buf,
  71              		.loc 1 82 5 is_stmt 1 view .LVU12
  72 0028 4023     		movs	r3, #64
  73 002a 2A46     		mov	r2, r5
  74 002c 0121     		movs	r1, #1
  75 002e 2046     		mov	r0, r4
  76 0030 FFF7FEFF 		bl	USBD_LL_PrepareReceive
  77              	.LVL5:
  83:Src/usb/hid/usbd_hid.c ****                            USBD_CUSTOMHID_OUTREPORT_BUF_SIZE);
  84:Src/usb/hid/usbd_hid.c **** }
  78              		.loc 1 84 1 is_stmt 0 view .LVU13
  79 0034 38BD     		pop	{r3, r4, r5, pc}
  80              	.LVL6:
  81              	.L4:
  82              		.loc 1 84 1 view .LVU14
  83 0036 00BF     		.align	2
  84              	.L3:
  85 0038 00000000 		.word	hidClassData
  86 003c 00000000 		.word	USBD_CustomHID_fops
  87              		.cfi_endproc
  88              	.LFE145:
ARM GAS  /tmp/ccnHeIbX.s 			page 4


  90              		.section	.text.USBD_HID_Setup,"ax",%progbits
  91              		.align	1
  92              		.global	USBD_HID_Setup
  93              		.syntax unified
  94              		.thumb
  95              		.thumb_func
  96              		.fpu fpv5-d16
  98              	USBD_HID_Setup:
  99              	.LVL7:
 100              	.LFB146:
  85:Src/usb/hid/usbd_hid.c **** 
  86:Src/usb/hid/usbd_hid.c **** 
  87:Src/usb/hid/usbd_hid.c **** /**
  88:Src/usb/hid/usbd_hid.c ****   * @brief  USBD_CUSTOM_HID_Setup
  89:Src/usb/hid/usbd_hid.c ****   *         Handle the CUSTOM_HID specific requests
  90:Src/usb/hid/usbd_hid.c ****   * @param  pdev: instance
  91:Src/usb/hid/usbd_hid.c ****   * @param  req: usb requests
  92:Src/usb/hid/usbd_hid.c ****   * @retval status
  93:Src/usb/hid/usbd_hid.c ****   */
  94:Src/usb/hid/usbd_hid.c **** uint8_t USBD_HID_Setup(USBD_HandleTypeDef *pdev, USBD_SetupReqTypedef *req)
  95:Src/usb/hid/usbd_hid.c **** {
 101              		.loc 1 95 1 is_stmt 1 view -0
 102              		.cfi_startproc
 103              		@ args = 0, pretend = 0, frame = 0
 104              		@ frame_needed = 0, uses_anonymous_args = 0
 105              		.loc 1 95 1 is_stmt 0 view .LVU16
 106 0000 10B5     		push	{r4, lr}
 107              	.LCFI1:
 108              		.cfi_def_cfa_offset 8
 109              		.cfi_offset 4, -8
 110              		.cfi_offset 14, -4
  96:Src/usb/hid/usbd_hid.c ****   uint16_t len = 0;
 111              		.loc 1 96 3 is_stmt 1 view .LVU17
 112              	.LVL8:
  97:Src/usb/hid/usbd_hid.c ****   const uint8_t *pbuf = NULL;
 113              		.loc 1 97 3 view .LVU18
  98:Src/usb/hid/usbd_hid.c ****   USBD_CUSTOM_HID_HandleTypeDef     *hhid = &hidClassData;
 114              		.loc 1 98 3 view .LVU19
  99:Src/usb/hid/usbd_hid.c **** 
 100:Src/usb/hid/usbd_hid.c ****   switch (req->bmRequest & USB_REQ_TYPE_MASK)
 115              		.loc 1 100 3 view .LVU20
 116              		.loc 1 100 14 is_stmt 0 view .LVU21
 117 0002 0C78     		ldrb	r4, [r1]	@ zero_extendqisi2
 118              		.loc 1 100 3 view .LVU22
 119 0004 14F06004 		ands	r4, r4, #96
 120 0008 30D0     		beq	.L6
 121 000a 202C     		cmp	r4, #32
 122 000c 5CD1     		bne	.L19
 101:Src/usb/hid/usbd_hid.c ****   {
 102:Src/usb/hid/usbd_hid.c ****   case USB_REQ_TYPE_CLASS :
 103:Src/usb/hid/usbd_hid.c ****     switch (req->bRequest)
 123              		.loc 1 103 5 is_stmt 1 view .LVU23
 124              		.loc 1 103 16 is_stmt 0 view .LVU24
 125 000e 4B78     		ldrb	r3, [r1, #1]	@ zero_extendqisi2
 126 0010 023B     		subs	r3, r3, #2
 127 0012 092B     		cmp	r3, #9
 128 0014 26D8     		bhi	.L8
ARM GAS  /tmp/ccnHeIbX.s 			page 5


 129 0016 DFE803F0 		tbb	[pc, r3]
 130              	.L10:
 131 001a 16       		.byte	(.L14-.L10)/2
 132 001b 0A       		.byte	(.L13-.L10)/2
 133 001c 25       		.byte	(.L8-.L10)/2
 134 001d 25       		.byte	(.L8-.L10)/2
 135 001e 25       		.byte	(.L8-.L10)/2
 136 001f 25       		.byte	(.L8-.L10)/2
 137 0020 25       		.byte	(.L8-.L10)/2
 138 0021 1C       		.byte	(.L12-.L10)/2
 139 0022 10       		.byte	(.L11-.L10)/2
 140 0023 05       		.byte	(.L9-.L10)/2
 141              		.p2align 1
 142              	.L9:
 104:Src/usb/hid/usbd_hid.c ****     {
 105:Src/usb/hid/usbd_hid.c ****     case HID_REQ_SET_PROTOCOL:
 106:Src/usb/hid/usbd_hid.c ****       hhid->Protocol = (uint8_t)(req->wValue);
 143              		.loc 1 106 7 is_stmt 1 view .LVU25
 144              		.loc 1 106 24 is_stmt 0 view .LVU26
 145 0024 8A78     		ldrb	r2, [r1, #2]	@ zero_extendqisi2
 146              		.loc 1 106 22 view .LVU27
 147 0026 2A4B     		ldr	r3, .L24
 148 0028 1A64     		str	r2, [r3, #64]
 107:Src/usb/hid/usbd_hid.c ****       break;
 149              		.loc 1 107 7 is_stmt 1 view .LVU28
 108:Src/usb/hid/usbd_hid.c **** 
 109:Src/usb/hid/usbd_hid.c ****     case HID_REQ_GET_PROTOCOL:
 110:Src/usb/hid/usbd_hid.c ****       USBD_CtlSendData(pdev, (uint8_t *)&hhid->Protocol, 1);
 111:Src/usb/hid/usbd_hid.c ****       break;
 112:Src/usb/hid/usbd_hid.c **** 
 113:Src/usb/hid/usbd_hid.c ****     case HID_REQ_SET_IDLE:
 114:Src/usb/hid/usbd_hid.c ****       hhid->IdleState = (uint8_t)(req->wValue >> 8);
 115:Src/usb/hid/usbd_hid.c ****       break;
 116:Src/usb/hid/usbd_hid.c **** 
 117:Src/usb/hid/usbd_hid.c ****     case HID_REQ_GET_IDLE:
 118:Src/usb/hid/usbd_hid.c ****       USBD_CtlSendData(pdev, (uint8_t *)&hhid->IdleState, 1);
 119:Src/usb/hid/usbd_hid.c ****       break;
 120:Src/usb/hid/usbd_hid.c **** 
 121:Src/usb/hid/usbd_hid.c ****     case HID_REQ_SET_REPORT:
 122:Src/usb/hid/usbd_hid.c ****       hhid->IsReportAvailable = 1;
 123:Src/usb/hid/usbd_hid.c ****       USBD_CtlPrepareRx(pdev, hhid->Report_buf, (uint8_t)(req->wLength));
 124:Src/usb/hid/usbd_hid.c ****       break;
 125:Src/usb/hid/usbd_hid.c **** 
 126:Src/usb/hid/usbd_hid.c ****     default:
 127:Src/usb/hid/usbd_hid.c ****       USBD_CtlError (pdev, req);
 128:Src/usb/hid/usbd_hid.c ****       return USBD_FAIL;
 129:Src/usb/hid/usbd_hid.c ****     }
 130:Src/usb/hid/usbd_hid.c ****     break;
 131:Src/usb/hid/usbd_hid.c **** 
 132:Src/usb/hid/usbd_hid.c ****   case USB_REQ_TYPE_STANDARD:
 133:Src/usb/hid/usbd_hid.c ****     switch (req->bRequest)
 134:Src/usb/hid/usbd_hid.c ****     {
 135:Src/usb/hid/usbd_hid.c ****     case USB_REQ_GET_DESCRIPTOR:
 136:Src/usb/hid/usbd_hid.c ****       if( req->wValue >> 8 == HID_REPORT_DESC)
 137:Src/usb/hid/usbd_hid.c ****       {
 138:Src/usb/hid/usbd_hid.c ****         len = MIN(USBD_HID_ReportDescriptorSize , req->wLength);
 139:Src/usb/hid/usbd_hid.c ****         pbuf =  USBD_CustomHID_fops.pReport;
ARM GAS  /tmp/ccnHeIbX.s 			page 6


 140:Src/usb/hid/usbd_hid.c ****       }
 141:Src/usb/hid/usbd_hid.c ****       else if( req->wValue >> 8 == HID_DESCRIPTOR_TYPE)
 142:Src/usb/hid/usbd_hid.c ****       {
 143:Src/usb/hid/usbd_hid.c ****         pbuf = USBD_ConfigDescriptor + USBD_HID_DescriptorOffset;
 144:Src/usb/hid/usbd_hid.c ****         len = MIN(USB_HID_DESC_SIZE, req->wLength);
 145:Src/usb/hid/usbd_hid.c ****       }
 146:Src/usb/hid/usbd_hid.c **** 
 147:Src/usb/hid/usbd_hid.c ****       USBD_CtlSendData (pdev,
 148:Src/usb/hid/usbd_hid.c ****                         pbuf,
 149:Src/usb/hid/usbd_hid.c ****                         len);
 150:Src/usb/hid/usbd_hid.c **** 
 151:Src/usb/hid/usbd_hid.c ****       break;
 152:Src/usb/hid/usbd_hid.c **** 
 153:Src/usb/hid/usbd_hid.c ****     case USB_REQ_GET_INTERFACE :
 154:Src/usb/hid/usbd_hid.c ****       USBD_CtlSendData (pdev,
 155:Src/usb/hid/usbd_hid.c ****                         (uint8_t *)&hhid->AltSetting,
 156:Src/usb/hid/usbd_hid.c ****                         1);
 157:Src/usb/hid/usbd_hid.c ****       break;
 158:Src/usb/hid/usbd_hid.c **** 
 159:Src/usb/hid/usbd_hid.c ****     case USB_REQ_SET_INTERFACE :
 160:Src/usb/hid/usbd_hid.c ****       hhid->AltSetting = (uint8_t)(req->wValue);
 161:Src/usb/hid/usbd_hid.c ****       break;
 162:Src/usb/hid/usbd_hid.c ****     }
 163:Src/usb/hid/usbd_hid.c ****   }
 164:Src/usb/hid/usbd_hid.c ****   return USBD_OK;
 150              		.loc 1 164 10 is_stmt 0 view .LVU29
 151 002a 0024     		movs	r4, #0
 107:Src/usb/hid/usbd_hid.c ****       break;
 152              		.loc 1 107 7 view .LVU30
 153 002c 4DE0     		b	.L7
 154              	.L13:
 110:Src/usb/hid/usbd_hid.c ****       break;
 155              		.loc 1 110 7 is_stmt 1 view .LVU31
 156 002e 0122     		movs	r2, #1
 157 0030 2849     		ldr	r1, .L24+4
 158              	.LVL9:
 110:Src/usb/hid/usbd_hid.c ****       break;
 159              		.loc 1 110 7 is_stmt 0 view .LVU32
 160 0032 FFF7FEFF 		bl	USBD_CtlSendData
 161              	.LVL10:
 111:Src/usb/hid/usbd_hid.c **** 
 162              		.loc 1 111 7 is_stmt 1 view .LVU33
 163              		.loc 1 164 10 is_stmt 0 view .LVU34
 164 0036 0024     		movs	r4, #0
 111:Src/usb/hid/usbd_hid.c **** 
 165              		.loc 1 111 7 view .LVU35
 166 0038 47E0     		b	.L7
 167              	.LVL11:
 168              	.L11:
 114:Src/usb/hid/usbd_hid.c ****       break;
 169              		.loc 1 114 7 is_stmt 1 view .LVU36
 114:Src/usb/hid/usbd_hid.c ****       break;
 170              		.loc 1 114 38 is_stmt 0 view .LVU37
 171 003a 4B88     		ldrh	r3, [r1, #2]
 114:Src/usb/hid/usbd_hid.c ****       break;
 172              		.loc 1 114 25 view .LVU38
 173 003c 1B0A     		lsrs	r3, r3, #8
ARM GAS  /tmp/ccnHeIbX.s 			page 7


 114:Src/usb/hid/usbd_hid.c ****       break;
 174              		.loc 1 114 23 view .LVU39
 175 003e 244A     		ldr	r2, .L24
 176 0040 5364     		str	r3, [r2, #68]
 115:Src/usb/hid/usbd_hid.c **** 
 177              		.loc 1 115 7 is_stmt 1 view .LVU40
 178              		.loc 1 164 10 is_stmt 0 view .LVU41
 179 0042 0024     		movs	r4, #0
 115:Src/usb/hid/usbd_hid.c **** 
 180              		.loc 1 115 7 view .LVU42
 181 0044 41E0     		b	.L7
 182              	.L14:
 118:Src/usb/hid/usbd_hid.c ****       break;
 183              		.loc 1 118 7 is_stmt 1 view .LVU43
 184 0046 0122     		movs	r2, #1
 185 0048 2349     		ldr	r1, .L24+8
 186              	.LVL12:
 118:Src/usb/hid/usbd_hid.c ****       break;
 187              		.loc 1 118 7 is_stmt 0 view .LVU44
 188 004a FFF7FEFF 		bl	USBD_CtlSendData
 189              	.LVL13:
 119:Src/usb/hid/usbd_hid.c **** 
 190              		.loc 1 119 7 is_stmt 1 view .LVU45
 191              		.loc 1 164 10 is_stmt 0 view .LVU46
 192 004e 0024     		movs	r4, #0
 119:Src/usb/hid/usbd_hid.c **** 
 193              		.loc 1 119 7 view .LVU47
 194 0050 3BE0     		b	.L7
 195              	.LVL14:
 196              	.L12:
 122:Src/usb/hid/usbd_hid.c ****       USBD_CtlPrepareRx(pdev, hhid->Report_buf, (uint8_t)(req->wLength));
 197              		.loc 1 122 7 is_stmt 1 view .LVU48
 122:Src/usb/hid/usbd_hid.c ****       USBD_CtlPrepareRx(pdev, hhid->Report_buf, (uint8_t)(req->wLength));
 198              		.loc 1 122 31 is_stmt 0 view .LVU49
 199 0052 1F4B     		ldr	r3, .L24
 200 0054 0122     		movs	r2, #1
 201 0056 DA64     		str	r2, [r3, #76]
 123:Src/usb/hid/usbd_hid.c ****       break;
 202              		.loc 1 123 7 is_stmt 1 view .LVU50
 203 0058 8A79     		ldrb	r2, [r1, #6]	@ zero_extendqisi2
 204 005a 1946     		mov	r1, r3
 205              	.LVL15:
 123:Src/usb/hid/usbd_hid.c ****       break;
 206              		.loc 1 123 7 is_stmt 0 view .LVU51
 207 005c FFF7FEFF 		bl	USBD_CtlPrepareRx
 208              	.LVL16:
 124:Src/usb/hid/usbd_hid.c **** 
 209              		.loc 1 124 7 is_stmt 1 view .LVU52
 210              		.loc 1 164 10 is_stmt 0 view .LVU53
 211 0060 0024     		movs	r4, #0
 124:Src/usb/hid/usbd_hid.c **** 
 212              		.loc 1 124 7 view .LVU54
 213 0062 32E0     		b	.L7
 214              	.LVL17:
 215              	.L8:
 127:Src/usb/hid/usbd_hid.c ****       return USBD_FAIL;
 216              		.loc 1 127 7 is_stmt 1 view .LVU55
ARM GAS  /tmp/ccnHeIbX.s 			page 8


 217 0064 FFF7FEFF 		bl	USBD_CtlError
 218              	.LVL18:
 128:Src/usb/hid/usbd_hid.c ****     }
 219              		.loc 1 128 7 view .LVU56
 128:Src/usb/hid/usbd_hid.c ****     }
 220              		.loc 1 128 14 is_stmt 0 view .LVU57
 221 0068 0324     		movs	r4, #3
 222 006a 2EE0     		b	.L7
 223              	.LVL19:
 224              	.L6:
 133:Src/usb/hid/usbd_hid.c ****     {
 225              		.loc 1 133 5 is_stmt 1 view .LVU58
 133:Src/usb/hid/usbd_hid.c ****     {
 226              		.loc 1 133 16 is_stmt 0 view .LVU59
 227 006c 4B78     		ldrb	r3, [r1, #1]	@ zero_extendqisi2
 228 006e 0A2B     		cmp	r3, #10
 229 0070 21D0     		beq	.L15
 230 0072 0B2B     		cmp	r3, #11
 231 0074 24D0     		beq	.L16
 232 0076 062B     		cmp	r3, #6
 233 0078 27D1     		bne	.L7
 136:Src/usb/hid/usbd_hid.c ****       {
 234              		.loc 1 136 7 is_stmt 1 view .LVU60
 136:Src/usb/hid/usbd_hid.c ****       {
 235              		.loc 1 136 14 is_stmt 0 view .LVU61
 236 007a 4B88     		ldrh	r3, [r1, #2]
 136:Src/usb/hid/usbd_hid.c ****       {
 237              		.loc 1 136 28 view .LVU62
 238 007c 1B0A     		lsrs	r3, r3, #8
 136:Src/usb/hid/usbd_hid.c ****       {
 239              		.loc 1 136 9 view .LVU63
 240 007e 222B     		cmp	r3, #34
 241 0080 07D0     		beq	.L22
 141:Src/usb/hid/usbd_hid.c ****       {
 242              		.loc 1 141 12 is_stmt 1 view .LVU64
 141:Src/usb/hid/usbd_hid.c ****       {
 243              		.loc 1 141 14 is_stmt 0 view .LVU65
 244 0082 212B     		cmp	r3, #33
 245 0084 0ED0     		beq	.L23
  97:Src/usb/hid/usbd_hid.c ****   USBD_CUSTOM_HID_HandleTypeDef     *hhid = &hidClassData;
 246              		.loc 1 97 18 view .LVU66
 247 0086 0023     		movs	r3, #0
  96:Src/usb/hid/usbd_hid.c ****   const uint8_t *pbuf = NULL;
 248              		.loc 1 96 12 view .LVU67
 249 0088 1A46     		mov	r2, r3
 250              	.LVL20:
 251              	.L18:
 147:Src/usb/hid/usbd_hid.c ****                         pbuf,
 252              		.loc 1 147 7 is_stmt 1 view .LVU68
 253 008a 1946     		mov	r1, r3
 254              	.LVL21:
 147:Src/usb/hid/usbd_hid.c ****                         pbuf,
 255              		.loc 1 147 7 is_stmt 0 view .LVU69
 256 008c FFF7FEFF 		bl	USBD_CtlSendData
 257              	.LVL22:
 151:Src/usb/hid/usbd_hid.c **** 
 258              		.loc 1 151 7 is_stmt 1 view .LVU70
ARM GAS  /tmp/ccnHeIbX.s 			page 9


 259 0090 1BE0     		b	.L7
 260              	.LVL23:
 261              	.L22:
 138:Src/usb/hid/usbd_hid.c ****         pbuf =  USBD_CustomHID_fops.pReport;
 262              		.loc 1 138 9 view .LVU71
 138:Src/usb/hid/usbd_hid.c ****         pbuf =  USBD_CustomHID_fops.pReport;
 263              		.loc 1 138 15 is_stmt 0 view .LVU72
 264 0092 CA88     		ldrh	r2, [r1, #6]
 265 0094 114B     		ldr	r3, .L24+12
 266 0096 1B88     		ldrh	r3, [r3]
 138:Src/usb/hid/usbd_hid.c ****         pbuf =  USBD_CustomHID_fops.pReport;
 267              		.loc 1 138 13 view .LVU73
 268 0098 9A42     		cmp	r2, r3
 269 009a 28BF     		it	cs
 270 009c 1A46     		movcs	r2, r3
 271              	.LVL24:
 139:Src/usb/hid/usbd_hid.c ****       }
 272              		.loc 1 139 9 is_stmt 1 view .LVU74
 139:Src/usb/hid/usbd_hid.c ****       }
 273              		.loc 1 139 14 is_stmt 0 view .LVU75
 274 009e 104B     		ldr	r3, .L24+16
 275 00a0 1B68     		ldr	r3, [r3]
 276              	.LVL25:
 139:Src/usb/hid/usbd_hid.c ****       }
 277              		.loc 1 139 14 view .LVU76
 278 00a2 F2E7     		b	.L18
 279              	.LVL26:
 280              	.L23:
 143:Src/usb/hid/usbd_hid.c ****         len = MIN(USB_HID_DESC_SIZE, req->wLength);
 281              		.loc 1 143 9 is_stmt 1 view .LVU77
 143:Src/usb/hid/usbd_hid.c ****         len = MIN(USB_HID_DESC_SIZE, req->wLength);
 282              		.loc 1 143 38 is_stmt 0 view .LVU78
 283 00a4 0F4B     		ldr	r3, .L24+20
 284 00a6 1B88     		ldrh	r3, [r3]
 143:Src/usb/hid/usbd_hid.c ****         len = MIN(USB_HID_DESC_SIZE, req->wLength);
 285              		.loc 1 143 14 view .LVU79
 286 00a8 0F4A     		ldr	r2, .L24+24
 287 00aa 1344     		add	r3, r3, r2
 288              	.LVL27:
 144:Src/usb/hid/usbd_hid.c ****       }
 289              		.loc 1 144 9 is_stmt 1 view .LVU80
 144:Src/usb/hid/usbd_hid.c ****       }
 290              		.loc 1 144 15 is_stmt 0 view .LVU81
 291 00ac CA88     		ldrh	r2, [r1, #6]
 144:Src/usb/hid/usbd_hid.c ****       }
 292              		.loc 1 144 13 view .LVU82
 293 00ae 092A     		cmp	r2, #9
 294 00b0 28BF     		it	cs
 295 00b2 0922     		movcs	r2, #9
 296              	.LVL28:
 144:Src/usb/hid/usbd_hid.c ****       }
 297              		.loc 1 144 13 view .LVU83
 298 00b4 E9E7     		b	.L18
 299              	.LVL29:
 300              	.L15:
 154:Src/usb/hid/usbd_hid.c ****                         (uint8_t *)&hhid->AltSetting,
 301              		.loc 1 154 7 is_stmt 1 view .LVU84
ARM GAS  /tmp/ccnHeIbX.s 			page 10


 302 00b6 0122     		movs	r2, #1
 303 00b8 0C49     		ldr	r1, .L24+28
 304              	.LVL30:
 154:Src/usb/hid/usbd_hid.c ****                         (uint8_t *)&hhid->AltSetting,
 305              		.loc 1 154 7 is_stmt 0 view .LVU85
 306 00ba FFF7FEFF 		bl	USBD_CtlSendData
 307              	.LVL31:
 157:Src/usb/hid/usbd_hid.c **** 
 308              		.loc 1 157 7 is_stmt 1 view .LVU86
 309 00be 04E0     		b	.L7
 310              	.LVL32:
 311              	.L16:
 160:Src/usb/hid/usbd_hid.c ****       break;
 312              		.loc 1 160 7 view .LVU87
 160:Src/usb/hid/usbd_hid.c ****       break;
 313              		.loc 1 160 26 is_stmt 0 view .LVU88
 314 00c0 8A78     		ldrb	r2, [r1, #2]	@ zero_extendqisi2
 160:Src/usb/hid/usbd_hid.c ****       break;
 315              		.loc 1 160 24 view .LVU89
 316 00c2 034B     		ldr	r3, .L24
 317 00c4 9A64     		str	r2, [r3, #72]
 161:Src/usb/hid/usbd_hid.c ****     }
 318              		.loc 1 161 7 is_stmt 1 view .LVU90
 319 00c6 00E0     		b	.L7
 320              	.L19:
 100:Src/usb/hid/usbd_hid.c ****   {
 321              		.loc 1 100 3 is_stmt 0 view .LVU91
 322 00c8 0024     		movs	r4, #0
 323              	.LVL33:
 324              	.L7:
 165:Src/usb/hid/usbd_hid.c **** }
 325              		.loc 1 165 1 view .LVU92
 326 00ca 2046     		mov	r0, r4
 327 00cc 10BD     		pop	{r4, pc}
 328              	.L25:
 329 00ce 00BF     		.align	2
 330              	.L24:
 331 00d0 00000000 		.word	hidClassData
 332 00d4 40000000 		.word	hidClassData+64
 333 00d8 44000000 		.word	hidClassData+68
 334 00dc 00000000 		.word	USBD_HID_ReportDescriptorSize
 335 00e0 00000000 		.word	USBD_CustomHID_fops
 336 00e4 00000000 		.word	USBD_HID_DescriptorOffset
 337 00e8 00000000 		.word	USBD_ConfigDescriptor
 338 00ec 48000000 		.word	hidClassData+72
 339              		.cfi_endproc
 340              	.LFE146:
 342              		.section	.text.USBD_CUSTOM_HID_SendReport,"ax",%progbits
 343              		.align	1
 344              		.global	USBD_CUSTOM_HID_SendReport
 345              		.syntax unified
 346              		.thumb
 347              		.thumb_func
 348              		.fpu fpv5-d16
 350              	USBD_CUSTOM_HID_SendReport:
 351              	.LVL34:
 352              	.LFB147:
ARM GAS  /tmp/ccnHeIbX.s 			page 11


 166:Src/usb/hid/usbd_hid.c **** 
 167:Src/usb/hid/usbd_hid.c **** 
 168:Src/usb/hid/usbd_hid.c **** /**
 169:Src/usb/hid/usbd_hid.c ****   * @brief  USBD_CUSTOM_HID_SendReport
 170:Src/usb/hid/usbd_hid.c ****   *         Send CUSTOM_HID Report
 171:Src/usb/hid/usbd_hid.c ****   * @param  pdev: device instance
 172:Src/usb/hid/usbd_hid.c ****   * @param  buff: pointer to report
 173:Src/usb/hid/usbd_hid.c ****   * @retval status
 174:Src/usb/hid/usbd_hid.c ****   */
 175:Src/usb/hid/usbd_hid.c **** uint8_t USBD_CUSTOM_HID_SendReport     (USBD_HandleTypeDef  *pdev,
 176:Src/usb/hid/usbd_hid.c ****                                  uint8_t *report,
 177:Src/usb/hid/usbd_hid.c ****                                  uint16_t len)
 178:Src/usb/hid/usbd_hid.c **** {
 353              		.loc 1 178 1 is_stmt 1 view -0
 354              		.cfi_startproc
 355              		@ args = 0, pretend = 0, frame = 0
 356              		@ frame_needed = 0, uses_anonymous_args = 0
 357              		@ link register save eliminated.
 179:Src/usb/hid/usbd_hid.c ****   USBD_CUSTOM_HID_HandleTypeDef     *hhid = &hidClassData;
 358              		.loc 1 179 3 view .LVU94
 180:Src/usb/hid/usbd_hid.c **** 
 181:Src/usb/hid/usbd_hid.c ****   if (pdev->dev_state == USBD_STATE_CONFIGURED )
 359              		.loc 1 181 3 view .LVU95
 182:Src/usb/hid/usbd_hid.c ****   {
 183:Src/usb/hid/usbd_hid.c **** /*    if(hhid->state == CUSTOM_HID_IDLE)
 184:Src/usb/hid/usbd_hid.c ****     {
 185:Src/usb/hid/usbd_hid.c ****       hhid->state = CUSTOM_HID_BUSY;
 186:Src/usb/hid/usbd_hid.c ****       USBD_LL_Transmit (pdev,
 187:Src/usb/hid/usbd_hid.c ****                         CUSTOM_HID_EPIN_ADDR,
 188:Src/usb/hid/usbd_hid.c ****                         report,
 189:Src/usb/hid/usbd_hid.c ****                         len);
 190:Src/usb/hid/usbd_hid.c ****     }
 191:Src/usb/hid/usbd_hid.c ****     */
 192:Src/usb/hid/usbd_hid.c ****   }
 360              		.loc 1 192 3 view .LVU96
 193:Src/usb/hid/usbd_hid.c ****   return USBD_OK;
 361              		.loc 1 193 3 view .LVU97
 194:Src/usb/hid/usbd_hid.c **** }
 362              		.loc 1 194 1 is_stmt 0 view .LVU98
 363 0000 0020     		movs	r0, #0
 364              	.LVL35:
 365              		.loc 1 194 1 view .LVU99
 366 0002 7047     		bx	lr
 367              		.cfi_endproc
 368              	.LFE147:
 370              		.section	.text.USBD_HID_DataIn,"ax",%progbits
 371              		.align	1
 372              		.global	USBD_HID_DataIn
 373              		.syntax unified
 374              		.thumb
 375              		.thumb_func
 376              		.fpu fpv5-d16
 378              	USBD_HID_DataIn:
 379              	.LVL36:
 380              	.LFB148:
 195:Src/usb/hid/usbd_hid.c **** 
 196:Src/usb/hid/usbd_hid.c **** /**
ARM GAS  /tmp/ccnHeIbX.s 			page 12


 197:Src/usb/hid/usbd_hid.c ****   * @brief  USBD_CUSTOM_HID_DataIn
 198:Src/usb/hid/usbd_hid.c ****   *         handle data IN Stage
 199:Src/usb/hid/usbd_hid.c ****   * @param  pdev: device instance
 200:Src/usb/hid/usbd_hid.c ****   * @param  epnum: endpoint index
 201:Src/usb/hid/usbd_hid.c ****   * @retval status
 202:Src/usb/hid/usbd_hid.c ****   */
 203:Src/usb/hid/usbd_hid.c **** uint8_t  USBD_HID_DataIn (USBD_HandleTypeDef *pdev,
 204:Src/usb/hid/usbd_hid.c ****                               uint8_t epnum)
 205:Src/usb/hid/usbd_hid.c **** {
 381              		.loc 1 205 1 is_stmt 1 view -0
 382              		.cfi_startproc
 383              		@ args = 0, pretend = 0, frame = 0
 384              		@ frame_needed = 0, uses_anonymous_args = 0
 385              		.loc 1 205 1 is_stmt 0 view .LVU101
 386 0000 10B5     		push	{r4, lr}
 387              	.LCFI2:
 388              		.cfi_def_cfa_offset 8
 389              		.cfi_offset 4, -8
 390              		.cfi_offset 14, -4
 206:Src/usb/hid/usbd_hid.c ****   (void)pdev;
 391              		.loc 1 206 3 is_stmt 1 view .LVU102
 207:Src/usb/hid/usbd_hid.c ****   (void)epnum;
 392              		.loc 1 207 3 view .LVU103
 208:Src/usb/hid/usbd_hid.c **** 
 209:Src/usb/hid/usbd_hid.c ****   /* Ensure that the FIFO is empty before a new transfer, this condition could
 210:Src/usb/hid/usbd_hid.c ****   be caused by  a new transfer before the end of the previous transfer */
 211:Src/usb/hid/usbd_hid.c ****   hidClassData.state = CUSTOM_HID_IDLE;
 393              		.loc 1 211 3 view .LVU104
 394              		.loc 1 211 22 is_stmt 0 view .LVU105
 395 0002 054A     		ldr	r2, .L29
 396 0004 0024     		movs	r4, #0
 397 0006 82F85040 		strb	r4, [r2, #80]
 212:Src/usb/hid/usbd_hid.c **** 
 213:Src/usb/hid/usbd_hid.c ****   /* No IRQ operation is required, because this function is called in ISR, so  */
 214:Src/usb/hid/usbd_hid.c ****   USBD_LL_PrepareReceive(pdev, CUSTOM_HID_EPOUT_ADDR , hidClassData.Report_buf,
 398              		.loc 1 214 3 is_stmt 1 view .LVU106
 399 000a 4023     		movs	r3, #64
 400 000c 0121     		movs	r1, #1
 401              	.LVL37:
 402              		.loc 1 214 3 is_stmt 0 view .LVU107
 403 000e FFF7FEFF 		bl	USBD_LL_PrepareReceive
 404              	.LVL38:
 215:Src/usb/hid/usbd_hid.c ****                          USBD_CUSTOMHID_OUTREPORT_BUF_SIZE);
 216:Src/usb/hid/usbd_hid.c **** 
 217:Src/usb/hid/usbd_hid.c ****   return USBD_OK;
 405              		.loc 1 217 3 is_stmt 1 view .LVU108
 218:Src/usb/hid/usbd_hid.c **** }
 406              		.loc 1 218 1 is_stmt 0 view .LVU109
 407 0012 2046     		mov	r0, r4
 408 0014 10BD     		pop	{r4, pc}
 409              	.L30:
 410 0016 00BF     		.align	2
 411              	.L29:
 412 0018 00000000 		.word	hidClassData
 413              		.cfi_endproc
 414              	.LFE148:
 416              		.section	.text.USBD_HID_DataOut,"ax",%progbits
ARM GAS  /tmp/ccnHeIbX.s 			page 13


 417              		.align	1
 418              		.global	USBD_HID_DataOut
 419              		.syntax unified
 420              		.thumb
 421              		.thumb_func
 422              		.fpu fpv5-d16
 424              	USBD_HID_DataOut:
 425              	.LVL39:
 426              	.LFB149:
 219:Src/usb/hid/usbd_hid.c **** 
 220:Src/usb/hid/usbd_hid.c **** /**
 221:Src/usb/hid/usbd_hid.c ****   * @brief  USBD_CUSTOM_HID_DataOut
 222:Src/usb/hid/usbd_hid.c ****   *         handle data OUT Stage
 223:Src/usb/hid/usbd_hid.c ****   * @param  pdev: device instance
 224:Src/usb/hid/usbd_hid.c ****   * @param  epnum: endpoint index
 225:Src/usb/hid/usbd_hid.c ****   * @retval status
 226:Src/usb/hid/usbd_hid.c ****   */
 227:Src/usb/hid/usbd_hid.c **** uint8_t  USBD_HID_DataOut (USBD_HandleTypeDef *pdev,
 228:Src/usb/hid/usbd_hid.c ****                               uint8_t epnum)
 229:Src/usb/hid/usbd_hid.c **** {
 427              		.loc 1 229 1 is_stmt 1 view -0
 428              		.cfi_startproc
 429              		@ args = 0, pretend = 0, frame = 0
 430              		@ frame_needed = 0, uses_anonymous_args = 0
 431              		.loc 1 229 1 is_stmt 0 view .LVU111
 432 0000 08B5     		push	{r3, lr}
 433              	.LCFI3:
 434              		.cfi_def_cfa_offset 8
 435              		.cfi_offset 3, -8
 436              		.cfi_offset 14, -4
 230:Src/usb/hid/usbd_hid.c ****   (void)pdev;
 437              		.loc 1 230 3 is_stmt 1 view .LVU112
 231:Src/usb/hid/usbd_hid.c ****   (void)epnum;
 438              		.loc 1 231 3 view .LVU113
 232:Src/usb/hid/usbd_hid.c **** 
 233:Src/usb/hid/usbd_hid.c ****   USBD_CUSTOM_HID_HandleTypeDef     *hhid = &hidClassData;
 439              		.loc 1 233 3 view .LVU114
 440              	.LVL40:
 234:Src/usb/hid/usbd_hid.c **** 
 235:Src/usb/hid/usbd_hid.c ****   USBD_CustomHID_fops.OutEvent(hhid->Report_buf);
 441              		.loc 1 235 3 view .LVU115
 442              		.loc 1 235 22 is_stmt 0 view .LVU116
 443 0002 034B     		ldr	r3, .L33
 444 0004 DB68     		ldr	r3, [r3, #12]
 445              		.loc 1 235 3 view .LVU117
 446 0006 0348     		ldr	r0, .L33+4
 447              	.LVL41:
 448              		.loc 1 235 3 view .LVU118
 449 0008 9847     		blx	r3
 450              	.LVL42:
 236:Src/usb/hid/usbd_hid.c **** 
 237:Src/usb/hid/usbd_hid.c ****   return USBD_OK;
 451              		.loc 1 237 3 is_stmt 1 view .LVU119
 238:Src/usb/hid/usbd_hid.c **** }
 452              		.loc 1 238 1 is_stmt 0 view .LVU120
 453 000a 0020     		movs	r0, #0
 454 000c 08BD     		pop	{r3, pc}
ARM GAS  /tmp/ccnHeIbX.s 			page 14


 455              	.L34:
 456 000e 00BF     		.align	2
 457              	.L33:
 458 0010 00000000 		.word	USBD_CustomHID_fops
 459 0014 00000000 		.word	hidClassData
 460              		.cfi_endproc
 461              	.LFE149:
 463              		.section	.text.USBD_HID_EP0_RxReady,"ax",%progbits
 464              		.align	1
 465              		.global	USBD_HID_EP0_RxReady
 466              		.syntax unified
 467              		.thumb
 468              		.thumb_func
 469              		.fpu fpv5-d16
 471              	USBD_HID_EP0_RxReady:
 472              	.LVL43:
 473              	.LFB150:
 239:Src/usb/hid/usbd_hid.c **** 
 240:Src/usb/hid/usbd_hid.c **** /**
 241:Src/usb/hid/usbd_hid.c ****   * @brief  USBD_HID_EP0_RxReady
 242:Src/usb/hid/usbd_hid.c ****   *         Handles control request data.
 243:Src/usb/hid/usbd_hid.c ****   * @param  pdev: device instance
 244:Src/usb/hid/usbd_hid.c ****   * @retval status
 245:Src/usb/hid/usbd_hid.c ****   */
 246:Src/usb/hid/usbd_hid.c **** uint8_t USBD_HID_EP0_RxReady(USBD_HandleTypeDef *pdev)
 247:Src/usb/hid/usbd_hid.c **** {
 474              		.loc 1 247 1 is_stmt 1 view -0
 475              		.cfi_startproc
 476              		@ args = 0, pretend = 0, frame = 0
 477              		@ frame_needed = 0, uses_anonymous_args = 0
 248:Src/usb/hid/usbd_hid.c ****   (void)pdev;
 478              		.loc 1 248 3 view .LVU122
 249:Src/usb/hid/usbd_hid.c **** 
 250:Src/usb/hid/usbd_hid.c ****   USBD_CUSTOM_HID_HandleTypeDef     *hhid = &hidClassData;
 479              		.loc 1 250 3 view .LVU123
 251:Src/usb/hid/usbd_hid.c **** 
 252:Src/usb/hid/usbd_hid.c ****   if (hhid->IsReportAvailable == 1)
 480              		.loc 1 252 3 view .LVU124
 481              		.loc 1 252 11 is_stmt 0 view .LVU125
 482 0000 074B     		ldr	r3, .L42
 483 0002 DB6C     		ldr	r3, [r3, #76]
 484              		.loc 1 252 6 view .LVU126
 485 0004 012B     		cmp	r3, #1
 486 0006 01D0     		beq	.L41
 253:Src/usb/hid/usbd_hid.c ****   {
 254:Src/usb/hid/usbd_hid.c ****     USBD_CustomHID_fops.OutEvent(hhid->Report_buf);
 255:Src/usb/hid/usbd_hid.c ****     hhid->IsReportAvailable = 0;
 256:Src/usb/hid/usbd_hid.c ****   }
 257:Src/usb/hid/usbd_hid.c **** 
 258:Src/usb/hid/usbd_hid.c ****   return USBD_OK;
 487              		.loc 1 258 3 is_stmt 1 view .LVU127
 259:Src/usb/hid/usbd_hid.c **** }
 488              		.loc 1 259 1 is_stmt 0 view .LVU128
 489 0008 0020     		movs	r0, #0
 490              	.LVL44:
 491              		.loc 1 259 1 view .LVU129
 492 000a 7047     		bx	lr
ARM GAS  /tmp/ccnHeIbX.s 			page 15


 493              	.LVL45:
 494              	.L41:
 247:Src/usb/hid/usbd_hid.c ****   (void)pdev;
 495              		.loc 1 247 1 view .LVU130
 496 000c 10B5     		push	{r4, lr}
 497              	.LCFI4:
 498              		.cfi_def_cfa_offset 8
 499              		.cfi_offset 4, -8
 500              		.cfi_offset 14, -4
 254:Src/usb/hid/usbd_hid.c ****     hhid->IsReportAvailable = 0;
 501              		.loc 1 254 5 is_stmt 1 view .LVU131
 254:Src/usb/hid/usbd_hid.c ****     hhid->IsReportAvailable = 0;
 502              		.loc 1 254 24 is_stmt 0 view .LVU132
 503 000e 054B     		ldr	r3, .L42+4
 504 0010 DB68     		ldr	r3, [r3, #12]
 254:Src/usb/hid/usbd_hid.c ****     hhid->IsReportAvailable = 0;
 505              		.loc 1 254 5 view .LVU133
 506 0012 034C     		ldr	r4, .L42
 507 0014 2046     		mov	r0, r4
 508              	.LVL46:
 254:Src/usb/hid/usbd_hid.c ****     hhid->IsReportAvailable = 0;
 509              		.loc 1 254 5 view .LVU134
 510 0016 9847     		blx	r3
 511              	.LVL47:
 255:Src/usb/hid/usbd_hid.c ****   }
 512              		.loc 1 255 5 is_stmt 1 view .LVU135
 255:Src/usb/hid/usbd_hid.c ****   }
 513              		.loc 1 255 29 is_stmt 0 view .LVU136
 514 0018 0023     		movs	r3, #0
 515 001a E364     		str	r3, [r4, #76]
 258:Src/usb/hid/usbd_hid.c **** }
 516              		.loc 1 258 3 is_stmt 1 view .LVU137
 517              		.loc 1 259 1 is_stmt 0 view .LVU138
 518 001c 0020     		movs	r0, #0
 519 001e 10BD     		pop	{r4, pc}
 520              	.L43:
 521              		.align	2
 522              	.L42:
 523 0020 00000000 		.word	hidClassData
 524 0024 00000000 		.word	USBD_CustomHID_fops
 525              		.cfi_endproc
 526              	.LFE150:
 528              		.comm	hidClassData,84,4
 529              		.text
 530              	.Letext0:
 531              		.file 2 "/usr/lib/gcc/arm-none-eabi/9.2.1/include/stdint.h"
 532              		.file 3 "Drivers/CMSIS/Include/core_cm7.h"
 533              		.file 4 "Drivers/CMSIS/Device/ST/STM32F7xx/Include/system_stm32f7xx.h"
 534              		.file 5 "Drivers/STM32F7xx_HAL_Driver/Inc/stm32f7xx_hal.h"
 535              		.file 6 "/usr/lib/gcc/arm-none-eabi/9.2.1/include/stddef.h"
 536              		.file 7 "/usr/include/newlib/sys/_types.h"
 537              		.file 8 "/usr/include/newlib/sys/reent.h"
 538              		.file 9 "/usr/include/newlib/sys/lock.h"
 539              		.file 10 "/usr/include/newlib/stdlib.h"
 540              		.file 11 "Middlewares/ST/STM32_USB_Device_Library/Core/Inc/usbd_def.h"
 541              		.file 12 "Inc/usbd_hid.h"
 542              		.file 13 "Inc/usbd_desc.h"
ARM GAS  /tmp/ccnHeIbX.s 			page 16


 543              		.file 14 "Middlewares/ST/STM32_USB_Device_Library/Core/Inc/usbd_core.h"
 544              		.file 15 "Middlewares/ST/STM32_USB_Device_Library/Core/Inc/usbd_ioreq.h"
 545              		.file 16 "Middlewares/ST/STM32_USB_Device_Library/Core/Inc/usbd_ctlreq.h"
ARM GAS  /tmp/ccnHeIbX.s 			page 17

